(dp0
S'cast'
p1
(lp2
(dp3
S'role'
p4
ccopy_reg
_reconstructor
p5
(cimdb.Character
Character
p6
c__builtin__
object
p7
Ntp8
Rp9
(dp10
S'_roleIsPerson'
p11
I00
sS'_roleClass'
p12
g6
sS'infoset2keys'
p13
(dp14
sS'current_info'
p15
(lp16
sS'keys_tomodify'
p17
(dp18
S'quotes'
p19
NsS'biography'
p20
NssS'notes'
p21
V
p22
sS'myName'
p23
g22
sS'key2infoset'
p24
(dp25
sS'charactersRefs'
p26
(dp27
sS'accessSystem'
p28
S'http'
p29
sS'namesRefs'
p30
(dp31
sS'myID'
p32
NsS'_Container__role'
p33
NsS'titlesRefs'
p34
(dp35
sS'data'
p36
(dp37
S'name'
p38
VNeo
p39
ssS'characterID'
p40
S'0000741'
p41
sS'modFunct'
p42
cimdb.utils
modClearRefs
p43
sbsg38
VKeanu Reeves
p44
sa(dp45
g4
g5
(g6
g7
Ntp46
Rp47
(dp48
g11
I00
sg12
g6
sg13
(dp49
sg15
(lp50
sg17
(dp51
g19
Nsg20
Nssg21
g22
sg23
g22
sg24
(dp52
sg26
(dp53
sg28
g29
sg30
(dp54
sg32
Nsg33
Nsg34
(dp55
sg36
(dp56
g38
VMorpheus
p57
ssg40
S'0000746'
p58
sg42
g43
sbsg38
VLaurence Fishburne
p59
sa(dp60
g4
g5
(g6
g7
Ntp61
Rp62
(dp63
g11
I00
sg12
g6
sg13
(dp64
sg15
(lp65
sg17
(dp66
g19
Nsg20
Nssg21
g22
sg23
g22
sg24
(dp67
sg26
(dp68
sg28
g29
sg30
(dp69
sg32
Nsg33
Nsg34
(dp70
sg36
(dp71
g38
VTrinity
p72
ssg40
S'0000744'
p73
sg42
g43
sbsg38
VCarrie-Anne Moss
p74
sa(dp75
g4
g5
(g6
g7
Ntp76
Rp77
(dp78
g11
I00
sg12
g6
sg13
(dp79
sg15
(lp80
sg17
(dp81
g19
Nsg20
Nssg21
g22
sg23
g22
sg24
(dp82
sg26
(dp83
sg28
g29
sg30
(dp84
sg32
Nsg33
Nsg34
(dp85
sg36
(dp86
g38
VAgent Smith
p87
ssg40
S'0000745'
p88
sg42
g43
sbsg38
VHugo Weaving
p89
sa(dp90
g4
g5
(g6
g7
Ntp91
Rp92
(dp93
g11
I00
sg12
g6
sg13
(dp94
sg15
(lp95
sg17
(dp96
g19
Nsg20
Nssg21
g22
sg23
g22
sg24
(dp97
sg26
(dp98
sg28
g29
sg30
(dp99
sg32
Nsg33
Nsg34
(dp100
sg36
(dp101
g38
VOracle
p102
ssg40
S'0000765'
p103
sg42
g43
sbsg38
VGloria Foster
p104
sa(dp105
g4
g5
(g6
g7
Ntp106
Rp107
(dp108
g11
I00
sg12
g6
sg13
(dp109
sg15
(lp110
sg17
(dp111
g19
Nsg20
Nssg21
g22
sg23
g22
sg24
(dp112
sg26
(dp113
sg28
g29
sg30
(dp114
sg32
Nsg33
Nsg34
(dp115
sg36
(dp116
g38
VCypher
p117
ssg40
S'0000749'
p118
sg42
g43
sbsg38
VJoe Pantoliano
p119
sa(dp120
g4
g5
(g6
g7
Ntp121
Rp122
(dp123
g11
I00
sg12
g6
sg13
(dp124
sg15
(lp125
sg17
(dp126
g19
Nsg20
Nssg21
g22
sg23
g22
sg24
(dp127
sg26
(dp128
sg28
g29
sg30
(dp129
sg32
Nsg33
Nsg34
(dp130
sg36
(dp131
g38
VTank
p132
ssg40
S'0000761'
p133
sg42
g43
sbsg38
VMarcus Chong
p134
sa(dp135
g4
g5
(g6
g7
Ntp136
Rp137
(dp138
g11
I00
sg12
g6
sg13
(dp139
sg15
(lp140
sg17
(dp141
g19
Nsg20
Nssg21
g22
sg23
g22
sg24
(dp142
sg26
(dp143
sg28
g29
sg30
(dp144
sg32
Nsg33
Nsg34
(dp145
sg36
(dp146
g38
VApoc
p147
ssg40
S'0000771'
p148
sg42
g43
sbsg38
VJulian Arahanga
p149
sa(dp150
g4
g5
(g6
g7
Ntp151
Rp152
(dp153
g11
I00
sg12
g6
sg13
(dp154
sg15
(lp155
sg17
(dp156
g19
Nsg20
Nssg21
g22
sg23
g22
sg24
(dp157
sg26
(dp158
sg28
g29
sg30
(dp159
sg32
Nsg33
Nsg34
(dp160
sg36
(dp161
g38
VMouse
p162
ssg40
S'0000766'
p163
sg42
g43
sbsg38
VMatt Doran
p164
sa(dp165
g4
g5
(g6
g7
Ntp166
Rp167
(dp168
g11
I00
sg12
g6
sg13
(dp169
sg15
(lp170
sg17
(dp171
g19
Nsg20
Nssg21
g22
sg23
g22
sg24
(dp172
sg26
(dp173
sg28
g29
sg30
(dp174
sg32
Nsg33
Nsg34
(dp175
sg36
(dp176
g38
VSwitch
p177
ssg40
S'0000774'
p178
sg42
g43
sbsg38
VBelinda McClory
p179
sa(dp180
g4
g5
(g6
g7
Ntp181
Rp182
(dp183
g11
I00
sg12
g6
sg13
(dp184
sg15
(lp185
sg17
(dp186
g19
Nsg20
Nssg21
g22
sg23
g22
sg24
(dp187
sg26
(dp188
sg28
g29
sg30
(dp189
sg32
Nsg33
Nsg34
(dp190
sg36
(dp191
g38
VDozer
p192
ssg40
S'0029765'
p193
sg42
g43
sbsg38
VAnthony Ray Parker
p194
sa(dp195
g4
g5
(g6
g7
Ntp196
Rp197
(dp198
g11
I00
sg12
g6
sg13
(dp199
sg15
(lp200
sg17
(dp201
g19
Nsg20
Nssg21
g22
sg23
g22
sg24
(dp202
sg26
(dp203
sg28
g29
sg30
(dp204
sg32
Nsg33
Nsg34
(dp205
sg36
(dp206
g38
VAgent Brown
p207
ssg40
S'0000769'
p208
sg42
g43
sbsg38
VPaul Goddard
p209
sa(dp210
g4
g5
(g6
g7
Ntp211
Rp212
(dp213
g11
I00
sg12
g6
sg13
(dp214
sg15
(lp215
sg17
(dp216
g19
Nsg20
Nssg21
g22
sg23
g22
sg24
(dp217
sg26
(dp218
sg28
g29
sg30
(dp219
sg32
Nsg33
Nsg34
(dp220
sg36
(dp221
g38
VAgent Jones
p222
ssg40
S'0000781'
p223
sg42
g43
sbsg38
VRobert Taylor
p224
sa(dp225
g4
g5
(g6
g7
Ntp226
Rp227
(dp228
g11
I00
sg12
g6
sg13
(dp229
sg15
(lp230
sg17
(dp231
g19
Nsg20
Nssg21
g22
sg23
g22
sg24
(dp232
sg26
(dp233
sg28
g29
sg30
(dp234
sg32
Nsg33
Nsg34
(dp235
sg36
(dp236
g38
VRhineheart
p237
ssg40
S'0000777'
p238
sg42
g43
sbsg38
VDavid Aston
p239
sa(dp240
g4
g5
(g6
g7
Ntp241
Rp242
(dp243
g11
I00
sg12
g6
sg13
(dp244
sg15
(lp245
sg17
(dp246
g19
Nsg20
Nssg21
g22
sg23
g22
sg24
(dp247
sg26
(dp248
sg28
g29
sg30
(dp249
sg32
Nsg33
Nsg34
(dp250
sg36
(dp251
g38
VChoi
p252
ssg40
S'0030779'
p253
sg42
g43
sbsg38
VMarc Aden Gray
p254
sa(dp255
g4
g5
(g6
g7
Ntp256
Rp257
(dp258
g11
I00
sg12
g6
sg13
(dp259
sg15
(lp260
sg17
(dp261
g19
Nsg20
Nssg21
g22
sg23
g22
sg24
(dp262
sg26
(dp263
sg28
g29
sg30
(dp264
sg32
Nsg33
Nsg34
(dp265
sg36
(dp266
g38
VDujour
p267
ssg40
S'0030780'
p268
sg42
g43
sbsg38
VAda Nicodemou
p269
sa(dp270
g4
g5
(g6
g7
Ntp271
Rp272
(dp273
g11
I00
sg12
g6
sg13
(dp274
sg15
(lp275
sg17
(dp276
g19
Nsg20
Nssg21
g22
sg23
g22
sg24
(dp277
sg26
(dp278
sg28
g29
sg30
(dp279
sg32
Nsg33
Nsg34
(dp280
sg36
(dp281
g38
VPriestess
p282
ssg40
Nsg42
g43
sbsg38
VDeni Gordon
p283
sa(dp284
g4
g5
(g6
g7
Ntp285
Rp286
(dp287
g11
I00
sg12
g6
sg13
(dp288
sg15
(lp289
sg17
(dp290
g19
Nsg20
Nssg21
g22
sg23
g22
sg24
(dp291
sg26
(dp292
sg28
g29
sg30
(dp293
sg32
Nsg33
Nsg34
(dp294
sg36
(dp295
g38
VSpoon Boy
p296
ssg40
S'0000784'
p297
sg42
g43
sbsg38
VRowan Witt
p298
sa(dp299
g4
g5
(g6
g7
Ntp300
Rp301
(dp302
g11
I00
sg12
g6
sg13
(dp303
sg15
(lp304
sg17
(dp305
g19
Nsg20
Nssg21
g22
sg23
g22
sg24
(dp306
sg26
(dp307
sg28
g29
sg30
(dp308
sg32
Nsg33
Nsg34
(dp309
sg36
(dp310
g38
VPotential
p311
ssg40
Nsg42
g43
sbsg38
VEleanor Witt
p312
sa(dp313
g4
g5
(g6
g7
Ntp314
Rp315
(dp316
g11
I00
sg12
g6
sg13
(dp317
sg15
(lp318
sg17
(dp319
g19
Nsg20
Nssg21
g22
sg23
g22
sg24
(dp320
sg26
(dp321
sg28
g29
sg30
(dp322
sg32
Nsg33
Nsg34
(dp323
sg36
(dp324
g38
VPotential
p325
ssg40
Nsg42
g43
sbsg38
VTamara Brown
p326
sa(dp327
g4
g5
(g6
g7
Ntp328
Rp329
(dp330
g11
I00
sg12
g6
sg13
(dp331
sg15
(lp332
sg17
(dp333
g19
Nsg20
Nssg21
g22
sg23
g22
sg24
(dp334
sg26
(dp335
sg28
g29
sg30
(dp336
sg32
Nsg33
Nsg34
(dp337
sg36
(dp338
g38
VPotential
p339
ssg40
Nsg42
g43
sbsg38
VJanaya Pender
p340
sa(dp341
g4
g5
(g6
g7
Ntp342
Rp343
(dp344
g11
I00
sg12
g6
sg13
(dp345
sg15
(lp346
sg17
(dp347
g19
Nsg20
Nssg21
g22
sg23
g22
sg24
(dp348
sg26
(dp349
sg28
g29
sg30
(dp350
sg32
Nsg33
Nsg34
(dp351
sg36
(dp352
g38
VPotential
p353
ssg40
Nsg42
g43
sbsg38
VAdryn White
p354
sa(dp355
g4
g5
(g6
g7
Ntp356
Rp357
(dp358
g11
I00
sg12
g6
sg13
(dp359
sg15
(lp360
sg17
(dp361
g19
Nsg20
Nssg21
g22
sg23
g22
sg24
(dp362
sg26
(dp363
sg28
g29
sg30
(dp364
sg32
Nsg33
Nsg34
(dp365
sg36
(dp366
g38
VPotential
p367
ssg40
Nsg42
g43
sbsg38
VNatalie Tjen
p368
sa(dp369
g4
g5
(g6
g7
Ntp370
Rp371
(dp372
g11
I00
sg12
g6
sg13
(dp373
sg15
(lp374
sg17
(dp375
g19
Nsg20
Nssg21
g22
sg23
g22
sg24
(dp376
sg26
(dp377
sg28
g29
sg30
(dp378
sg32
Nsg33
Nsg34
(dp379
sg36
(dp380
g38
VLieutenant
p381
ssg40
S'0030782'
p382
sg42
g43
sbsg38
VBill Young
p383
sa(dp384
g4
g5
(g6
g7
Ntp385
Rp386
(dp387
g11
I00
sg12
g6
sg13
(dp388
sg15
(lp389
sg17
(dp390
g19
Nsg20
Nssg21
g22
sg23
g22
sg24
(dp391
sg26
(dp392
sg28
g29
sg30
(dp393
sg32
Nsg33
Nsg34
(dp394
sg36
(dp395
g38
VFedEx Man
p396
ssg40
Nsg42
g43
sbsg38
VDavid O'Connor
p397
sa(dp398
g4
g5
(g6
g7
Ntp399
Rp400
(dp401
g11
I00
sg12
g6
sg13
(dp402
sg15
(lp403
sg17
(dp404
g19
Nsg20
Nssg21
g22
sg23
g22
sg24
(dp405
sg26
(dp406
sg28
g29
sg30
(dp407
sg32
Nsg33
Nsg34
(dp408
sg36
(dp409
g38
VBusinessman
p410
ssg40
Nsg42
g43
sbsg38
VJeremy Ball
p411
sa(dp412
g4
g5
(g6
g7
Ntp413
Rp414
(dp415
g11
I00
sg12
g6
sg13
(dp416
sg15
(lp417
sg17
(dp418
g19
Nsg20
Nssg21
g22
sg23
g22
sg24
(dp419
sg26
(dp420
sg28
g29
sg30
(dp421
sg32
Nsg33
Nsg34
(dp422
sg36
(dp423
g38
VWoman in Red
p424
ssg40
S'0030784'
p425
sg42
g43
sbsg38
VFiona Johnson
p426
sa(dp427
g4
g5
(g6
g7
Ntp428
Rp429
(dp430
g11
I00
sg12
g6
sg13
(dp431
sg15
(lp432
sg17
(dp433
g19
Nsg20
Nssg21
g22
sg23
g22
sg24
(dp434
sg26
(dp435
sg28
g29
sg30
(dp436
sg32
Nsg33
Nsg34
(dp437
sg36
(dp438
g38
VOld Man
p439
ssg40
Nsg42
g43
sbsg38
VHarry Lawrence
p440
sa(dp441
g4
g5
(g6
g7
Ntp442
Rp443
(dp444
g11
I00
sg12
g6
sg13
(dp445
sg15
(lp446
sg17
(dp447
g19
Nsg20
Nssg21
g22
sg23
g22
sg24
(dp448
sg26
(dp449
sg28
g29
sg30
(dp450
sg32
Nsg33
Nsg34
(dp451
sg36
(dp452
g38
VBlind Man
p453
ssg40
Nsg42
g43
sbsg38
VSteve Dodd
p454
sa(dp455
g4
g5
(g6
g7
Ntp456
Rp457
(dp458
g11
I00
sg12
g6
sg13
(dp459
sg15
(lp460
sg17
(dp461
g19
Nsg20
Nssg21
g22
sg23
g22
sg24
(dp462
sg26
(dp463
sg28
g29
sg30
(dp464
sg32
Nsg33
Nsg34
(dp465
sg36
(dp466
g38
VSecurity Guard
p467
ssg40
Nsg42
g43
sbsg38
VLuke Quinton
p468
sa(dp469
g4
g5
(g6
g7
Ntp470
Rp471
(dp472
g11
I00
sg12
g6
sg13
(dp473
sg15
(lp474
sg17
(dp475
g19
Nsg20
Nssg21
g22
sg23
g22
sg24
(dp476
sg26
(dp477
sg28
g29
sg30
(dp478
sg32
Nsg33
Nsg34
(dp479
sg36
(dp480
g38
VGuard
p481
ssg40
Nsg42
g43
sbsg38
VLawrence Woodward
p482
sa(dp483
g4
g5
(g6
g7
Ntp484
Rp485
(dp486
g11
I00
sg12
g6
sg13
(dp487
sg15
(lp488
sg17
(dp489
g19
Nsg20
Nssg21
g22
sg23
g22
sg24
(dp490
sg26
(dp491
sg28
g29
sg30
(dp492
sg32
Nsg33
Nsg34
(dp493
sg36
(dp494
g38
VCop Who Captures Neo
p495
ssg40
Nsg42
g43
sbsg38
VMichael Butcher
p496
sa(dp497
g4
g5
(g6
g7
Ntp498
Rp499
(dp500
g11
I00
sg12
g6
sg13
(dp501
sg15
(lp502
sg17
(dp503
g19
Nsg20
Nssg21
g22
sg23
g22
sg24
(dp504
sg26
(dp505
sg28
g29
sg30
(dp506
sg32
Nsg33
Nsg34
(dp507
sg36
(dp508
g38
VBig Cop
p509
ssg40
Nsg42
g43
sbsg38
VBernard Ledger
p510
sa(dp511
g4
g5
(g6
g7
Ntp512
Rp513
(dp514
g11
I00
sg12
g6
sg13
(dp515
sg15
(lp516
sg17
(dp517
g19
Nsg20
Nssg21
g22
sg23
g22
sg24
(dp518
sg26
(dp519
sg28
g29
sg30
(dp520
sg32
Nsg33
Nsg34
(dp521
sg36
(dp522
g38
VCop
p523
ssg40
Nsg42
g43
sbsg38
VRobert Simper
p524
sa(dp525
g4
g5
(g6
g7
Ntp526
Rp527
(dp528
g11
I00
sg12
g6
sg13
(dp529
sg15
(lp530
sg17
(dp531
g19
Nsg20
Nssg21
g22
sg23
g22
sg24
(dp532
sg26
(dp533
sg28
g29
sg30
(dp534
sg32
Nsg33
Nsg34
(dp535
sg36
(dp536
g38
VCop
p537
ssg40
Nsg42
g43
sbsg38
VChris Pattinson
p538
sa(dp539
g4
g5
(g6
g7
Ntp540
Rp541
(dp542
g11
I00
sg12
g6
sg13
(dp543
sg15
(lp544
sg17
(dp545
g19
Nsg20
Nssg21
g22
sg23
g22
sg24
(dp546
sg26
(dp547
sg28
g29
sg30
(dp548
sg32
Nsg33
Nsg34
(dp549
sg36
(dp550
g38
VParking Cop
p551
ssg40
Nsg42
g43
sbsg38
VNigel Harbach
p552
sa(dp553
g4
g5
(g6
g7
Ntp554
Rp555
(dp556
g11
I00
sg12
g6
sg13
(dp557
sg15
(lp558
sg17
(dp559
g19
Nsg20
Nssg21
g22
sg23
g22
sg24
(dp560
sg26
(dp561
sg28
g29
sg30
(dp562
sg32
Nsg33
Nsg34
(dp563
sg36
(dp564
g38
VShaylae - Woman in Office
p565
ssg40
Nsg42
g43
sbsg38
VRana Morrison
p566
sasS'directors'
p567
(lp568
(dp569
g38
VAndy Wachowski
p570
sa(dp571
g38
VLana Wachowski
p572
sasS'writers'
p573
(lp574
(dp575
g38
VAndy Wachowski
p576
sa(dp577
g38
VLana Wachowski
p578
sasS'our_rating'
p579
F6.6
sS'title'
p580
VThe Matrix (1999)
p581
sS'imdb_rating'
p582
F8.7
sS'year'
p583
I1999
sS'id'
p584
V0133093
p585
s.