(lp0
(lp1
(lp2
(L1999L
F7.199999809265137
F6.199999809265137
F6.4399998664855955
tp3
a(F6.199999809265137
tp4
aa(lp5
(L2001L
F7.799999952316284
F7.099999904632568
F6.6499998569488525
tp6
a(F7.699999809265137
tp7
aa(lp8
(L1969L
F7.099999904632568
F7.099999904632568
F7.099999904632568
tp9
a(F7.099999904632568
tp10
aa(lp11
(L1985L
F5.987500011920929
F3.4000000953674316
F6.125000047683716
tp12
a(F3.4000000953674316
tp13
aa(lp14
(L2007L
F7.375
F6.300000031789144
F6.300000031789144
tp15
a(F6.400000095367432
tp16
aa(lp17
(L1978L
F6.599999904632568
F5.159999895095825
F5.299999952316284
tp18
a(F6.599999904632568
tp19
aa(lp20
(L2000L
F6.033333381017049
F3.200000047683716
F3.200000047683716
tp21
a(F3.200000047683716
tp22
aa(lp23
(L2006L
F6.837500035762787
F6.049999952316284
F6.708333412806193
tp24
a(F6.099999904632568
tp25
aa(lp26
(L1999L
F6.699999945504325
F6.780000019073486
F6.872727220708674
tp27
a(F6.300000190734863
tp28
aa(lp29
(L1997L
F7.014285700661795
F6.350000023841858
F6.585714306150164
tp30
a(F4.900000095367432
tp31
aa(lp32
(L2010L
F7.300000190734863
F7.300000190734863
F7.300000190734863
tp33
a(F7.300000190734863
tp34
aa(lp35
(L2002L
F6.700000047683716
F6.3500001430511475
F6.549999952316284
tp36
a(F5.900000095367432
tp37
aa(lp38
(L1998L
F7.349999904632568
F7.0
F7.0
tp39
a(F7.0
tp40
aa(lp41
(L2002L
F6.899999936421712
F4.914285796029227
F6.266666730244954
tp42
a(F5.300000190734863
tp43
aa(lp44
(L2012L
F7.699999809265137
F7.699999809265137
F7.699999809265137
tp45
a(F7.699999809265137
tp46
aa(lp47
(L2002L
F6.437499940395355
F4.25
F6.433333357175191
tp48
a(F3.5
tp49
aa(lp50
(L1933L
F7.650000095367432
F7.060000069936117
F7.179999971389771
tp51
a(F7.400000095367432
tp52
aa(lp53
(L2008L
F6.866666475931804
F6.875
F6.849999904632568
tp54
a(F6.199999809265137
tp55
aa(lp56
(L1999L
F7.5
F6.199999945504325
F7.5
tp57
a(F7.5
tp58
aa(lp59
(L2013L
F7.5
F7.5
F7.5
tp60
a(F7.5
tp61
aa(lp62
(L1995L
F6.900000095367432
F6.788888931274414
F6.833333492279053
tp63
a(F5.800000190734863
tp64
aa(lp65
(L1965L
F6.666666666666667
F6.333333333333333
F6.599999904632568
tp66
a(F6.099999904632568
tp67
aa(lp68
(L1970L
F7.5333333015441895
F6.700000047683716
F6.719999980926514
tp69
a(F6.599999904632568
tp70
aa(lp71
(L1989L
F7.699999809265137
F7.071428571428571
F7.699999809265137
tp72
a(F7.699999809265137
tp73
aa(lp74
(L2009L
F6.199999809265137
F6.199999809265137
F6.199999809265137
tp75
a(F6.199999809265137
tp76
aa(lp77
(L2008L
F6.749999976158142
F5.199999809265137
F6.399999936421712
tp78
a(F5.199999809265137
tp79
aa(lp80
(L1995L
F6.654545480554754
F5.680000114440918
F6.258333305517833
tp81
a(F5.400000095367432
tp82
aa(lp83
(L2004L
F6.450000047683716
F5.466666539510091
F6.049999952316284
tp84
a(F5.5
tp85
aa(lp86
(L2002L
F7.349999904632568
F6.549999952316284
F7.033333381017049
tp87
a(F6.699999809265137
tp88
aa(lp89
(L2003L
F6.75
F5.6333333651224775
F7.119999980926513
tp90
a(F5.900000095367432
tp91
aa(lp92
(L2008L
F6.9666666984558105
F6.800000190734863
F6.800000190734863
tp93
a(F6.800000190734863
tp94
aa(lp95
(L1990L
F7.100000063578288
F6.300000190734863
F6.550000190734863
tp96
a(F6.300000190734863
tp97
aa(lp98
(L2010L
F7.599999904632568
F7.599999904632568
F7.799999952316284
tp99
a(F7.599999904632568
tp100
aa(lp101
(L2012L
F6.604347809501316
F6.5
F7.099999904632568
tp102
a(F6.5
tp103
aa(lp104
(L2009L
F7.700000047683716
F7.633333206176758
F7.599999904632568
tp105
a(F7.599999904632568
tp106
aa(lp107
(L2008L
F6.199999809265137
F6.199999809265137
F6.199999809265137
tp108
a(F6.199999809265137
tp109
aa(lp110
(L2002L
F8.0
F8.550000071525574
F8.200000095367432
tp111
a(F7.199999809265137
tp112
aa(lp113
(L2009L
F6.700000047683716
F5.900000095367432
F6.700000047683716
tp114
a(F5.900000095367432
tp115
aa(lp116
(L2008L
F6.699999809265137
F6.699999809265137
F6.699999809265137
tp117
a(F6.699999809265137
tp118
aa(lp119
(L2002L
F5.842857139451163
F3.506666660308838
F4.780769256445078
tp120
a(F2.700000047683716
tp121
aa(lp122
(L2002L
F7.480000019073486
F6.100000063578288
F6.800000190734863
tp123
a(F6.800000190734863
tp124
aa(lp125
(L2001L
F6.600000023841858
F6.266666730244954
F6.854545492114442
tp126
a(F6.0
tp127
aa(lp128
(L1965L
F7.8999998569488525
F6.833333333333333
F7.028947391008076
tp129
a(F7.599999904632568
tp130
aa(lp131
(L1989L
F7.700000047683716
F7.152631596515053
F7.300000011920929
tp132
a(F7.400000095367432
tp133
aa(lp134
(L2007L
F6.299999952316284
F4.599999904632568
F4.599999904632568
tp135
a(F4.599999904632568
tp136
aa(lp137
(L2007L
F6.8666666348775225
F6.233333269755046
F7.100000088031475
tp138
a(F5.400000095367432
tp139
aa(lp140
(L2010L
F6.759999847412109
F5.199999809265137
F6.761538432194636
tp141
a(F5.199999809265137
tp142
aa(lp143
(L2008L
F7.0
F5.699999809265137
F6.100000023841858
tp144
a(F5.199999809265137
tp145
aa(lp146
(L2003L
F3.799999952316284
F3.899999976158142
F6.442857163293021
tp147
a(F3.799999952316284
tp148
aa(lp149
(L1997L
F7.700000047683716
F6.675000071525574
F7.5
tp150
a(F7.5
tp151
aa(lp152
(L1964L
F8.0
F8.0
F7.028947391008076
tp153
a(F8.0
tp154
aa(lp155
(L2013L
F6.800000190734863
F6.300000190734863
F6.766666730244954
tp156
a(F6.300000190734863
tp157
aa(lp158
(L2003L
F6.899999976158142
F5.125
F5.599999904632568
tp159
a(F5.400000095367432
tp160
aa(lp161
(L2013L
F8.0
F8.0
F8.0
tp162
a(F8.0
tp163
aa(lp164
(L2010L
F7.0333333015441895
F6.199999809265137
F5.749999920527141
tp165
a(F6.199999809265137
tp166
aa(lp167
(L1972L
F6.906250029802322
F6.650000095367432
F6.720000076293945
tp168
a(F6.800000190734863
tp169
aa(lp170
(L2013L
F8.399999618530273
F8.299999713897705
F8.299999713897705
tp171
a(F8.399999618530273
tp172
aa(lp173
(L1989L
F7.0
F5.699999968210856
F6.650000015894572
tp174
a(F6.800000190734863
tp175
aa(lp176
(L2008L
F7.049999952316284
F6.25
F6.769999980926514
tp177
a(F6.599999904632568
tp178
aa(lp179
(L1988L
F7.299999952316284
F7.108000030517578
F7.112500031789144
tp180
a(F7.199999809265137
tp181
aa(lp182
(L1970L
F6.460000038146973
F4.599999904632568
F3.6666666666666665
tp183
a(F4.599999904632568
tp184
aa(lp185
(L1971L
F7.300000190734863
F3.699999988079071
F5.5
tp186
a(F5.5
tp187
aa(lp188
(L2013L
F6.188888867696126
F5.400000095367432
F5.400000095367432
tp189
a(F5.400000095367432
tp190
aa(lp191
(L1997L
F7.200000127156575
F5.4
F6.843103441698798
tp192
a(F5.800000190734863
tp193
aa(lp194
(L2012L
F6.019999980926514
F5.600000063578288
F5.650000095367432
tp195
a(F5.400000095367432
tp196
aa(lp197
(L2004L
F6.549999952316284
F5.400000095367432
F6.160000038146973
tp198
a(F5.400000095367432
tp199
aa(lp200
(L2013L
F6.266666571299235
F4.400000095367432
F6.058333317438762
tp201
a(F4.400000095367432
tp202
aa(lp203
(L2012L
F5.955555544959174
F4.199999809265137
F5.849999904632568
tp204
a(F4.199999809265137
tp205
aa(lp206
(L1972L
F7.599999904632568
F7.282608674920124
F7.212499916553497
tp207
a(F7.599999904632568
tp208
aa(lp209
(L2007L
F7.150000095367432
F6.799999952316284
F6.5
tp210
a(F6.5
tp211
aa(lp212
(L1994L
F7.300000071525574
F6.722222248713176
F7.050000190734863
tp213
a(F6.800000190734863
tp214
aa(lp215
(L1999L
F7.75
F7.599999904632568
F7.799999952316284
tp216
a(F7.599999904632568
tp217
aa(lp218
(L1995L
F6.950000047683716
F6.892857142857143
F7.200000166893005
tp219
a(F6.300000190734863
tp220
aa(lp221
(L2004L
F6.511111109345047
F5.099999904632568
F6.583333253860474
tp222
a(F5.099999904632568
tp223
aa(lp224
(L2004L
F7.800000190734863
F7.800000190734863
F7.800000190734863
tp225
a(F7.800000190734863
tp226
aa(lp227
(L2000L
F7.599999904632568
F6.306249976158142
F7.199999809265137
tp228
a(F7.199999809265137
tp229
aa(lp230
(L1959L
F7.722222222222222
F6.77142858505249
F7.5
tp231
a(F7.199999809265137
tp232
aa(lp233
(L2008L
F7.050000071525574
F7.0
F7.0
tp234
a(F7.0
tp235
aa(lp236
(L1999L
F6.600000063578288
F6.283333381017049
F5.959090904756025
tp237
a(F6.300000190734863
tp238
aa(lp239
(L2008L
F6.799999872843425
F6.099999904632568
F6.099999904632568
tp240
a(F6.099999904632568
tp241
aa(lp242
(L2003L
F7.699999809265137
F7.699999809265137
F7.699999809265137
tp243
a(F7.699999809265137
tp244
aa(lp245
(L1985L
F5.271428516932896
F5.124999940395355
F4.633333312140571
tp246
a(F3.799999952316284
tp247
aa(lp248
(L2012L
F3.0999999046325684
F4.049999952316284
F4.5333333015441895
tp249
a(F3.0999999046325684
tp250
aa(lp251
(L2014L
F7.333333333333333
F6.675000071525574
F7.028571401323591
tp252
a(F6.599999904632568
tp253
aa(lp254
(L1953L
F7.1833334763844805
F6.144444465637207
F6.2500001192092896
tp255
a(F5.900000095367432
tp256
aa(lp257
(L1944L
F7.268750071525574
F6.0
F6.571428503308978
tp258
a(F6.0
tp259
aa(lp260
(L2001L
F6.46511630124824
F4.099999904632568
F6.42941177592558
tp261
a(F4.099999904632568
tp262
aa(lp263
(L2003L
F6.188372096350027
F4.400000095367432
F5.442857197352818
tp264
a(F2.0999999046325684
tp265
aa(lp266
(L2001L
F7.400000095367432
F6.762499988079071
F6.733333349227905
tp267
a(F7.400000095367432
tp268
aa(lp269
(L1999L
F7.900000095367432
F7.150000095367432
F7.900000095367432
tp270
a(F7.900000095367432
tp271
aa(lp272
(L2014L
F7.46666685740153
F7.300000190734863
F7.300000190734863
tp273
a(F7.300000190734863
tp274
aa(lp275
(L2009L
F7.433333396911621
F7.3500001430511475
F7.3500001430511475
tp276
a(F6.599999904632568
tp277
aa(lp278
(L2008L
F6.975000023841858
F5.800000190734863
F6.561538512890156
tp279
a(F4.800000190734863
tp280
aa(lp281
(L1979L
F7.200000081743513
F7.03846157514132
F7.0
tp282
a(F7.0
tp283
aa(lp284
(L2014L
F6.900000214576721
F4.700000047683716
F6.75
tp285
a(F5.800000190734863
tp286
aa(lp287
(L1995L
F6.723529394935159
F5.650000095367432
F6.587499976158142
tp288
a(F5.5
tp289
aa(lp290
(L1974L
F8.199999809265137
F5.849999904632568
F7.699999968210856
tp291
a(F7.699999809265137
tp292
aa(lp293
(L2013L
F7.599999904632568
F7.599999904632568
F7.599999904632568
tp294
a(F7.599999904632568
tp295
aa(lp296
(L2001L
F6.900000095367432
F5.433333396911621
F6.066666603088379
tp297
a(F6.900000095367432
tp298
aa(lp299
(L2008L
F7.6
F6.0428570338657925
F6.433333237965901
tp300
a(F6.099999904632568
tp301
aaa(lp302
(lp303
(L1951L
F7.454545454545454
F6.144444465637207
F6.2500001192092896
tp304
a(F6.900000095367432
tp305
aa(lp306
(L1998L
F6.799999952316284
F6.599999904632568
F6.699999809265137
tp307
a(F6.699999809265137
tp308
aa(lp309
(L2014L
F6.475000023841858
F6.099999904632568
F6.099999904632568
tp310
a(F6.099999904632568
tp311
aa(lp312
(L2007L
F6.962499916553497
F6.100000063578288
F6.580000019073486
tp313
a(F5.099999904632568
tp314
aa(lp315
(L2004L
F7.25
F6.399999936421712
F6.46363639831543
tp316
a(F6.800000190734863
tp317
aa(lp318
(L2008L
F6.857142857142857
F5.933333237965901
F6.400000027247837
tp319
a(F5.699999809265137
tp320
aa(lp321
(L2005L
F6.700000007947286
F5.0
F6.333333333333333
tp322
a(F5.0
tp323
aa(lp324
(L1941L
F7.733333269755046
F6.6249998807907104
F7.071428571428571
tp325
a(F6.900000095367432
tp326
aa(lp327
(L2010L
F7.585714340209961
F6.599999904632568
F6.599999904632568
tp328
a(F6.599999904632568
tp329
aa(lp330
(L1994L
F6.825000166893005
F6.300000190734863
F6.675000071525574
tp331
a(F6.300000190734863
tp332
aa(lp333
(L2012L
F7.400000095367432
F7.400000095367432
F7.400000095367432
tp334
a(F7.400000095367432
tp335
aa(lp336
(L1995L
F7.100000063578288
F6.8199999809265135
F7.099999904632568
tp337
a(F7.099999904632568
tp338
aa(lp339
(L2012L
F6.699999968210856
F5.099999904632568
F5.099999904632568
tp340
a(F5.099999904632568
tp341
aa(lp342
(L1974L
F7.800000190734863
F7.6291667222976685
F7.705263238204153
tp343
a(F7.800000190734863
tp344
aa(lp345
(L1957L
F6.837499976158142
F6.144444465637207
F5.299999952316284
tp346
a(F4.699999809265137
tp347
aa(lp348
(L2005L
F7.300000190734863
F6.166666666666667
F6.0
tp349
a(F7.300000190734863
tp350
aa(lp351
(L2008L
F6.900000095367432
F5.800000190734863
F5.800000190734863
tp352
a(F5.800000190734863
tp353
aa(lp354
(L2001L
F7.300000190734863
F6.175000071525574
F7.300000190734863
tp355
a(F7.300000190734863
tp356
aa(lp357
(L2014L
F8.300000190734863
F8.300000190734863
F8.300000190734863
tp358
a(F8.300000190734863
tp359
aa(lp360
(L2008L
F6.566666762034099
F6.3500001430511475
F6.25
tp361
a(F5.800000190734863
tp362
aa(lp363
(L1970L
F7.300000190734863
F7.390909108248624
F6.666666746139526
tp364
a(F7.300000190734863
tp365
aa(lp366
(L2013L
F6.8666666348775225
F6.599999904632568
F6.599999904632568
tp367
a(F6.599999904632568
tp368
aa(lp369
(L2000L
F7.299999952316284
F6.327272675254128
F6.639130447221839
tp370
a(F6.699999809265137
tp371
aa(lp372
(L2008L
F6.599999904632568
F6.599999904632568
F6.599999904632568
tp373
a(F6.599999904632568
tp374
aa(lp375
(L1993L
F7.800000190734863
F6.900000015894572
F7.340000057220459
tp376
a(F7.800000190734863
tp377
aa(lp378
(L2002L
F7.599999904632568
F7.355555534362793
F7.038461501781757
tp379
a(F7.599999904632568
tp380
aa(lp381
(L2012L
F6.540000152587891
F5.699999968210856
F6.400000095367432
tp382
a(F6.400000095367432
tp383
aa(lp384
(L2002L
F7.041176487417782
F5.400000095367432
F6.046153857157781
tp385
a(F5.400000095367432
tp386
aa(lp387
(L1999L
F6.950000047683716
F6.3500001430511475
F6.307692344372089
tp388
a(F6.300000190734863
tp389
aa(lp390
(L2011L
F8.5
F8.5
F8.5
tp391
a(F8.5
tp392
aa(lp393
(L2011L
F6.683333396911621
F3.5
F4.650000095367432
tp394
a(F3.5
tp395
aa(lp396
(L2009L
F6.700000047683716
F5.599999904632568
F6.100000103314717
tp397
a(F5.599999904632568
tp398
aa(lp399
(L2008L
F7.38095225985088
F4.400000095367432
F4.400000095367432
tp400
a(F4.400000095367432
tp401
aa(lp402
(L2006L
F7.300000190734863
F6.266666730244954
F7.300000190734863
tp403
a(F7.300000190734863
tp404
aa(lp405
(L2009L
F6.450000047683716
F6.25
F6.25
tp406
a(F5.300000190734863
tp407
aa(lp408
(L2006L
F5.9666666984558105
F5.699999809265137
F6.066666603088379
tp409
a(F5.699999809265137
tp410
aa(lp411
(L1982L
F7.049999952316284
F6.5
F6.5
tp412
a(F6.5
tp413
aa(lp414
(L1989L
F6.98000020980835
F6.300000190734863
F5.6000001430511475
tp415
a(F5.800000190734863
tp416
aa(lp417
(L2004L
F7.299999872843425
F7.0
F7.0
tp418
a(F7.0
tp419
aa(lp420
(L1998L
F7.172727281397039
F6.274999976158142
F6.713333368301392
tp421
a(F5.0
tp422
aa(lp423
(L2004L
F7.25
F6.300000031789144
F7.3500001430511475
tp424
a(F6.900000095367432
tp425
aa(lp426
(L2008L
F6.400000095367432
F6.400000095367432
F6.400000095367432
tp427
a(F6.400000095367432
tp428
aa(lp429
(L2013L
F7.253846241877629
F6.660000038146973
F6.886363701386885
tp430
a(F5.599999904632568
tp431
aa(lp432
(L2007L
F6.599999904632568
F6.599999904632568
F6.599999904632568
tp433
a(F6.599999904632568
tp434
aa(lp435
(L2011L
F6.739999866485595
F5.199999809265137
F6.447619052160354
tp436
a(F5.199999809265137
tp437
aa(lp438
(L2001L
F6.953333346048991
F6.0
F6.915789478703549
tp439
a(F6.099999904632568
tp440
aa(lp441
(L1944L
F7.78333322207133
F6.599999957614475
F7.249999920527141
tp442
a(F7.699999809265137
tp443
aa(lp444
(L2008L
F7.049999952316284
F6.599999904632568
F6.609090935100209
tp445
a(F6.599999904632568
tp446
aa(lp447
(L2011L
F7.700000127156575
F5.099999904632568
F5.299999952316284
tp448
a(F7.099999904632568
tp449
aa(lp450
(L2013L
F6.699999809265137
F6.699999809265137
F6.949999809265137
tp451
a(F6.699999809265137
tp452
aa(lp453
(L1943L
F7.533333460489909
F6.929411747876336
F7.300000190734863
tp454
a(F7.300000190734863
tp455
aa(lp456
(L2001L
F6.725
F5.300000190734863
F6.110000038146973
tp457
a(F5.300000190734863
tp458
aa(lp459
(L2011L
F6.640000057220459
F5.983333428700765
F6.3190476780846
tp460
a(F4.800000190734863
tp461
aa(lp462
(L1989L
F6.3749998807907104
F6.233333269755046
F6.1285713740757535
tp463
a(F5.099999904632568
tp464
aa(lp465
(L2012L
F6.036363645033403
F3.0
F4.1
tp466
a(F2.4000000953674316
tp467
aa(lp468
(L1986L
F7.400000095367432
F6.599999984105428
F6.790000057220459
tp469
a(F7.400000095367432
tp470
aa(lp471
(L2013L
F6.339999961853027
F5.099999904632568
F6.412500023841858
tp472
a(F5.099999904632568
tp473
aa(lp474
(L2007L
F7.199999809265137
F6.564705876743092
F6.449999809265137
tp475
a(F6.199999809265137
tp476
aa(lp477
(L2005L
F7.000000019868215
F6.800000031789144
F6.849999904632568
tp478
a(F6.599999904632568
tp479
aa(lp480
(L2005L
F6.400000095367432
F6.400000095367432
F6.400000095367432
tp481
a(F6.400000095367432
tp482
aa(lp483
(L2009L
F6.75
F5.599999904632568
F6.024999976158142
tp484
a(F5.599999904632568
tp485
aa(lp486
(L2009L
F6.870370317388464
F5.099999904632568
F6.639999961853027
tp487
a(F5.099999904632568
tp488
aa(lp489
(L2010L
F7.0
F7.0
F7.0
tp490
a(F7.0
tp491
aa(lp492
(L1941L
F7.300000190734863
F7.300000190734863
F7.300000190734863
tp493
a(F7.300000190734863
tp494
aa(lp495
(L1933L
F7.3444444338480634
F6.400000095367432
F6.400000095367432
tp496
a(F6.400000095367432
tp497
aa(lp498
(L2005L
F7.549999952316284
F6.899999936421712
F7.1333333651224775
tp499
a(F6.599999904632568
tp500
aa(lp501
(L2012L
F6.82352943981395
F6.099999904632568
F6.416666587193807
tp502
a(F5.599999904632568
tp503
aa(lp504
(L2000L
F7.349999904632568
F6.966666539510091
F7.0
tp505
a(F7.0
tp506
aa(lp507
(L2008L
F6.853333282470703
F4.699999809265137
F6.441666642824809
tp508
a(F4.699999809265137
tp509
aa(lp510
(L1984L
F6.9375
F6.179999923706054
F6.182352907517377
tp511
a(F5.0
tp512
aa(lp513
(L1994L
F6.825000166893005
F5.600000023841858
F5.959090904756025
tp514
a(F5.900000095367432
tp515
aa(lp516
(L2002L
F7.025000095367432
F6.6200000762939455
F7.1000001430511475
tp517
a(F6.300000190734863
tp518
aa(lp519
(L2006L
F4.050000071525574
F3.4000000953674316
F3.4000000953674316
tp520
a(F3.4000000953674316
tp521
aa(lp522
(L2006L
F8.050000190734863
F7.300000190734863
F7.300000190734863
tp523
a(F7.300000190734863
tp524
aa(lp525
(L2007L
F7.800000190734863
F7.800000190734863
F7.800000190734863
tp526
a(F7.800000190734863
tp527
aa(lp528
(L1942L
F6.960000038146973
F5.729999995231628
F5.824999928474426
tp529
a(F4.400000095367432
tp530
aa(lp531
(L2008L
F6.323076963424683
F6.400000095367432
F6.600000063578288
tp532
a(F6.300000190734863
tp533
aa(lp534
(L1997L
F7.279999923706055
F6.787499934434891
F6.933333269755045
tp535
a(F6.599999904632568
tp536
aa(lp537
(L2012L
F6.160869515460471
F4.5
F5.274999976158142
tp538
a(F4.400000095367432
tp539
aa(lp540
(L2009L
F6.699999809265137
F5.929999923706054
F6.699999809265137
tp541
a(F6.699999809265137
tp542
aa(lp543
(L2013L
F5.459999990463257
F4.874999940395355
F6.495999975204468
tp544
a(F3.799999952316284
tp545
aa(lp546
(L2007L
F6.599999904632568
F4.3999998569488525
F5.574999928474426
tp547
a(F5.699999809265137
tp548
aa(lp549
(L2003L
F6.130303021633264
F4.900000095367432
F6.308333317438762
tp550
a(F4.900000095367432
tp551
aa(lp552
(L2013L
F6.071428571428571
F5.099999904632568
F5.099999904632568
tp553
a(F5.099999904632568
tp554
aa(lp555
(L2013L
F4.099999904632568
F4.099999904632568
F5.300000031789144
tp556
a(F4.099999904632568
tp557
aa(lp558
(L2014L
F8.5
F8.5
F8.5
tp559
a(F8.5
tp560
aa(lp561
(L1954L
F8.200000286102295
F7.060000069936117
F7.800000190734863
tp562
a(F7.800000190734863
tp563
aa(lp564
(L2010L
F7.549999952316284
F6.975000023841858
F7.099999904632568
tp565
a(F7.099999904632568
tp566
aa(lp567
(L2010L
F6.950000047683716
F6.799999952316284
F6.599999904632568
tp568
a(F6.599999904632568
tp569
aa(lp570
(L1933L
F7.600000063578288
F7.5
F7.041666666666667
tp571
a(F7.5
tp572
aa(lp573
(L2008L
F6.5
F5.800000190734863
F6.916666706403096
tp574
a(F5.800000190734863
tp575
aa(lp576
(L2012L
F8.799999952316284
F8.779999923706054
F8.75
tp577
a(F8.800000190734863
tp578
aa(lp579
(L2001L
F6.911111089918348
F6.95
F7.092307714315561
tp580
a(F6.099999904632568
tp581
aa(lp582
(L1971L
F7.612500011920929
F6.530769238105187
F7.266666730244954
tp583
a(F6.599999904632568
tp584
aa(lp585
(L2007L
F6.5
F6.099999904632568
F6.099999904632568
tp586
a(F6.099999904632568
tp587
aa(lp588
(L2013L
F5.8066666920979815
F5.099999904632568
F5.099999904632568
tp589
a(F5.099999904632568
tp590
aa(lp591
(L2012L
F6.099999904632568
F6.099999904632568
F6.25
tp592
a(F6.099999904632568
tp593
aa(lp594
(L2013L
F6.8750001192092896
F6.6000001430511475
F7.100000088031475
tp595
a(F5.900000095367432
tp596
aa(lp597
(L2008L
F6.849999904632568
F5.0
F6.380000019073487
tp598
a(F5.0
tp599
aa(lp600
(L1992L
F7.549999952316284
F7.25
F7.25
tp601
a(F7.400000095367432
tp602
aaa(lp603
(lp604
(L2011L
F8.150000095367432
F8.100000381469727
F8.100000381469727
tp605
a(F8.100000381469727
tp606
aa(lp607
(L1949L
F7.4999998807907104
F6.859999942779541
F7.199999904632568
tp608
a(F7.0
tp609
aa(lp610
(L2012L
F7.199999809265137
F6.850000023841858
F7.199999809265137
tp611
a(F6.699999809265137
tp612
aa(lp613
(L2007L
F7.380000019073487
F7.099999904632568
F7.099999904632568
tp614
a(F7.099999904632568
tp615
aa(lp616
(L2011L
F7.450000047683716
F6.240000152587891
F7.109090935100209
tp617
a(F6.300000190734863
tp618
aa(lp619
(L2014L
F8.800000190734863
F7.8500001430511475
F7.8500001430511475
tp620
a(F8.800000190734863
tp621
aa(lp622
(L2005L
F7.900000095367432
F7.900000095367432
F7.900000095367432
tp623
a(F7.900000095367432
tp624
aa(lp625
(L1994L
F6.812500059604645
F6.3750001192092896
F6.400000095367432
tp626
a(F6.400000095367432
tp627
aa(lp628
(L2008L
F6.088888857099745
F2.4000000953674316
F4.857142857142857
tp629
a(F2.4000000953674316
tp630
aa(lp631
(L1997L
F6.550000020435879
F5.400000095367432
F6.0100000381469725
tp632
a(F5.400000095367432
tp633
aa(lp634
(L1963L
F7.5
F7.069230739886944
F7.2399999618530275
tp635
a(F7.199999809265137
tp636
aa(lp637
(L2012L
F8.199999809265137
F7.4666666984558105
F7.550000071525574
tp638
a(F8.199999809265137
tp639
aa(lp640
(L1999L
F7.299999952316284
F6.599999904632568
F6.771428653172085
tp641
a(F6.599999904632568
tp642
aa(lp643
(L2011L
F5.599999904632568
F4.599999904632568
F5.099999904632568
tp644
a(F4.599999904632568
tp645
aa(lp646
(L2013L
F7.150000095367432
F6.900000095367432
F7.150000095367432
tp647
a(F6.900000095367432
tp648
aa(lp649
(L2004L
F6.940000057220459
F6.850000023841858
F7.25
tp650
a(F6.800000190734863
tp651
aa(lp652
(L2010L
F7.900000095367432
F7.675000071525574
F7.900000095367432
tp653
a(F7.699999809265137
tp654
aa(lp655
(L1999L
F6.733333269755046
F5.2399999618530275
F6.03333334128062
tp656
a(F5.699999809265137
tp657
aa(lp658
(L2006L
F7.049999952316284
F6.900000095367432
F6.900000095367432
tp659
a(F6.900000095367432
tp660
aa(lp661
(L2011L
F6.683333396911621
F3.5
F4.650000095367432
tp662
a(F3.5
tp663
aa(lp664
(L1976L
F7.6333333651224775
F6.25
F6.825000047683716
tp665
a(F6.800000190734863
tp666
aa(lp667
(L2012L
F8.0
F8.0
F8.0
tp668
a(F8.0
tp669
aa(lp670
(L1962L
F6.1000001430511475
F4.649999976158142
F3.700000047683716
tp671
a(F3.700000047683716
tp672
aa(lp673
(L2001L
F6.900000095367432
F6.800000190734863
F7.050000190734863
tp674
a(F6.800000190734863
tp675
aa(lp676
(L2010L
F6.299999952316284
F6.299999952316284
F6.299999952316284
tp677
a(F6.199999809265137
tp678
aa(lp679
(L1990L
F6.842307732655452
F6.224999984105428
F6.600000063578288
tp680
a(F6.099999904632568
tp681
aa(lp682
(L2010L
F6.562499940395355
F6.433333237965901
F6.099999904632568
tp683
a(F5.599999904632568
tp684
aa(lp685
(L2013L
F8.800000190734863
F8.800000190734863
F8.800000190734863
tp686
a(F8.800000190734863
tp687
aa(lp688
(L1998L
F7.300000190734863
F7.300000190734863
F7.300000190734863
tp689
a(F7.300000190734863
tp690
aa(lp691
(L2001L
F6.325000017881393
F4.2499998807907104
F6.071428605488369
tp692
a(F3.799999952316284
tp693
aa(lp694
(L1992L
F7.200000047683716
F6.900000095367432
F6.614285741533552
tp695
a(F6.900000095367432
tp696
aa(lp697
(L2009L
F6.75
F4.900000095367432
F5.840000057220459
tp698
a(F4.900000095367432
tp699
aa(lp700
(L2008L
F7.75
F7.039999961853027
F6.8428570202418735
tp701
a(F6.699999809265137
tp702
aa(lp703
(L2014L
F6.059999942779541
F4.099999904632568
F4.3999998569488525
tp704
a(F4.099999904632568
tp705
aa(lp706
(L2010L
F6.6000001430511475
F5.400000095367432
F6.150000095367432
tp707
a(F5.400000095367432
tp708
aa(lp709
(L1964L
F7.32352943981395
F5.650000095367432
F7.033333460489909
tp710
a(F6.400000095367432
tp711
aa(lp712
(L2012L
F7.199999809265137
F7.199999809265137
F7.199999809265137
tp713
a(F7.199999809265137
tp714
aa(lp715
(L1997L
F7.950000047683716
F7.720000171661377
F7.825000166893005
tp716
a(F7.900000095367432
tp717
aa(lp718
(L2010L
F5.199999809265137
F5.549999952316284
F5.399999936421712
tp719
a(F5.199999809265137
tp720
aa(lp721
(L2006L
F6.889999961853027
F6.349999904632568
F5.833333412806193
tp722
a(F5.5
tp723
aa(lp724
(L1996L
F7.225000023841858
F6.599999904632568
F6.599999904632568
tp725
a(F6.599999904632568
tp726
aa(lp727
(L1987L
F7.254545428536155
F4.742857047489712
F5.475000011920929
tp728
a(F3.5999999046325684
tp729
aa(lp730
(L1947L
F7.17692309159499
F6.524999976158142
F6.0
tp731
a(F6.0
tp732
aa(lp733
(L1935L
F7.833333333333333
F7.099999904632568
F7.1586207028093005
tp734
a(F7.199999809265137
tp735
aa(lp736
(L1975L
F7.600000023841858
F6.624999952316284
F7.099999904632568
tp737
a(F7.099999904632568
tp738
aa(lp739
(L2007L
F7.099999904632568
F6.5
F6.5
tp740
a(F6.5
tp741
aa(lp742
(L2013L
F6.800000190734863
F6.400000095367432
F6.800000190734863
tp743
a(F6.800000190734863
tp744
aa(lp745
(L1979L
F7.1000001430511475
F6.75
F6.766666730244954
tp746
a(F6.800000190734863
tp747
aa(lp748
(L2012L
F5.766666730244954
F4.400000095367432
F4.400000095367432
tp749
a(F4.400000095367432
tp750
aa(lp751
(L2001L
F8.300000190734863
F7.950000047683716
F8.300000190734863
tp752
a(F8.300000190734863
tp753
aa(lp754
(L2012L
F7.480000019073486
F7.300000031789144
F7.099999904632568
tp755
a(F7.099999904632568
tp756
aa(lp757
(L1997L
F7.133333206176758
F6.740909077904441
F7.099999904632568
tp758
a(F7.099999904632568
tp759
aa(lp760
(L2013L
F6.1000001430511475
F5.800000190734863
F5.800000190734863
tp761
a(F5.800000190734863
tp762
aa(lp763
(L1984L
F6.79000004529953
F4.524999976158142
F6.262499988079071
tp764
a(F5.599999904632568
tp765
aa(lp766
(L2011L
F6.849999904632568
F5.699999809265137
F6.433333237965901
tp767
a(F5.699999809265137
tp768
aa(lp769
(L1997L
F7.200000127156575
F5.4
F6.843103441698798
tp770
a(F5.800000190734863
tp771
aa(lp772
(L2008L
F7.700000047683716
F6.433333396911621
F7.024999976158142
tp773
a(F7.5
tp774
aa(lp775
(L2010L
F5.133333206176758
F4.199999809265137
F4.5333333015441895
tp776
a(F4.199999809265137
tp777
aa(lp778
(L2014L
F7.900000095367432
F7.400000095367432
F7.900000095367432
tp779
a(F7.900000095367432
tp780
aa(lp781
(L2009L
F6.875
F6.266666730244954
F6.190909082239324
tp782
a(F5.800000190734863
tp783
aa(lp784
(L1970L
F6.460000038146973
F4.599999904632568
F3.6666666666666665
tp785
a(F4.599999904632568
tp786
aa(lp787
(L2011L
F5.790000009536743
F5.0
F5.75
tp788
a(F5.0
tp789
aa(lp790
(L1994L
F7.299999952316284
F6.549999952316284
F6.716666618982951
tp791
a(F6.599999904632568
tp792
aa(lp793
(L2006L
F6.833333333333333
F6.212500095367432
F6.899999976158142
tp794
a(F6.800000190734863
tp795
aa(lp796
(L1995L
F7.314814850136086
F6.744444476233588
F6.700000047683716
tp797
a(F6.0
tp798
aa(lp799
(L1926L
F6.7000000953674315
F5.0
F6.457142898014614
tp800
a(F5.0
tp801
aa(lp802
(L2003L
F7.0
F7.099999904632568
F7.166666666666667
tp803
a(F7.0
tp804
aa(lp805
(L1991L
F7.750000238418579
F7.0600001335144045
F7.650000095367432
tp806
a(F7.400000095367432
tp807
aa(lp808
(L1997L
F8.075000047683716
F6.71666665871938
F6.739999993642171
tp809
a(F7.599999904632568
tp810
aa(lp811
(L2006L
F6.699999904632568
F4.599999904632568
F6.366666714350383
tp812
a(F4.599999904632568
tp813
aa(lp814
(L1955L
F7.299999952316284
F7.099999904632568
F7.099999904632568
tp815
a(F7.099999904632568
tp816
aa(lp817
(L2004L
F7.225000023841858
F6.899999936421712
F6.933333269755045
tp818
a(F6.0
tp819
aa(lp820
(L2009L
F7.5
F6.810000038146972
F7.599999904632568
tp821
a(F7.599999904632568
tp822
aa(lp823
(L2010L
F6.349999904632568
F5.233333349227905
F7.099999904632568
tp824
a(F7.099999904632568
tp825
aa(lp826
(L2000L
F7.300000031789144
F7.3363635756752705
F7.035294083987965
tp827
a(F6.800000190734863
tp828
aa(lp829
(L2012L
F6.604347809501316
F6.5
F7.099999904632568
tp830
a(F6.5
tp831
aa(lp832
(L2013L
F5.872727264057506
F4.0
F6.613333320617675
tp833
a(F4.0
tp834
aa(lp835
(L1985L
F7.333333412806193
F6.940000025431315
F6.900000095367432
tp836
a(F7.0
tp837
aa(lp838
(L1939L
F7.833333333333333
F7.3500001430511475
F7.800000190734863
tp839
a(F7.800000190734863
tp840
aa(lp841
(L2013L
F6.150000095367432
F4.800000190734863
F5.924999952316284
tp842
a(F4.800000190734863
tp843
aa(lp844
(L1974L
F6.660000038146973
F6.5
F6.5
tp845
a(F6.5
tp846
aa(lp847
(L2005L
F7.3500001430511475
F6.6000001430511475
F6.800000190734863
tp848
a(F6.800000190734863
tp849
aa(lp850
(L2012L
F7.6000001430511475
F7.099999904632568
F7.162499964237213
tp851
a(F7.099999904632568
tp852
aa(lp853
(L2006L
F6.2583333651224775
F6.199999809265137
F6.199999809265137
tp854
a(F6.199999809265137
tp855
aa(lp856
(L2005L
F7.300000190734863
F6.166666666666667
F6.0
tp857
a(F7.300000190734863
tp858
aa(lp859
(L2010L
F7.25
F6.949999809265137
F7.199999809265137
tp860
a(F7.199999809265137
tp861
aa(lp862
(L2010L
F7.550000111262004
F6.650000095367432
F7.300000190734863
tp863
a(F7.300000190734863
tp864
aa(lp865
(L2011L
F7.049999952316284
F7.199999809265137
F7.199999809265137
tp866
a(F7.199999809265137
tp867
aa(lp868
(L2004L
F7.224999904632568
F5.800000190734863
F6.550000190734863
tp869
a(F5.800000190734863
tp870
aa(lp871
(L2012L
F5.7
F4.300000190734863
F4.300000190734863
tp872
a(F4.300000190734863
tp873
aa(lp874
(L1978L
F6.599999904632568
F5.159999895095825
F5.299999952316284
tp875
a(F6.599999904632568
tp876
aa(lp877
(L2002L
F6.554545416976467
F5.709090926430442
F6.210447752653663
tp878
a(F5.900000095367432
tp879
aa(lp880
(L1996L
F6.75
F5.699999809265137
F6.599999904632568
tp881
a(F5.699999809265137
tp882
aa(lp883
(L1970L
F6.572727246717974
F4.446153860825759
F3.5999999046325684
tp884
a(F3.5999999046325684
tp885
aa(lp886
(L1971L
F4.800000190734863
F4.800000190734863
F4.800000190734863
tp887
a(F4.800000190734863
tp888
aa(lp889
(L1995L
F6.992592599656847
F5.199999809265137
F6.643749982118607
tp890
a(F5.199999809265137
tp891
aa(lp892
(L2000L
F6.333333333333333
F4.400000095367432
F5.300000031789144
tp893
a(F4.400000095367432
tp894
aa(lp895
(L2006L
F7.125
F5.800000190734863
F6.850000023841858
tp896
a(F5.800000190734863
tp897
aa(lp898
(L1980L
F7.2
F5.284375049173832
F5.620000001362392
tp899
a(F6.699999809265137
tp900
aa(lp901
(L1937L
F7.199999928474426
F7.0
F7.0
tp902
a(F7.0
tp903
aaa(lp904
(lp905
(L1989L
F7.75
F5.585714340209961
F6.800000190734863
tp906
a(F6.800000190734863
tp907
aa(lp908
(L2006L
F6.325000047683716
F3.8000000715255737
F4.300000190734863
tp909
a(F4.300000190734863
tp910
aa(lp911
(L2006L
F7.049999952316284
F7.0
F7.266666571299235
tp912
a(F7.0
tp913
aa(lp914
(L1994L
F7.900000095367432
F7.11333335240682
F7.900000095367432
tp915
a(F7.900000095367432
tp916
aa(lp917
(L2007L
F6.6499998569488525
F5.099999904632568
F5.099999904632568
tp918
a(F5.099999904632568
tp919
aa(lp920
(L2011L
F6.460000038146973
F5.800000031789144
F6.849999972752163
tp921
a(F5.300000190734863
tp922
aa(lp923
(L1934L
F7.421052606482255
F7.188888867696126
F6.969999933242798
tp924
a(F6.699999809265137
tp925
aa(lp926
(L1996L
F6.42166668176651
F6.337500035762787
F5.6875001192092896
tp927
a(F4.099999904632568
tp928
aa(lp929
(L1977L
F7.099999904632568
F6.1499998569488525
F6.8666666348775225
tp930
a(F7.099999904632568
tp931
aa(lp932
(L2005L
F7.480000114440918
F5.900000095367432
F7.100000063578288
tp933
a(F5.900000095367432
tp934
aa(lp935
(L1996L
F5.419999957084656
F4.599999904632568
F5.799999952316284
tp936
a(F4.599999904632568
tp937
aa(lp938
(L2005L
F6.772972957507984
F6.320000028610229
F6.112499952316284
tp939
a(F5.400000095367432
tp940
aa(lp941
(L2008L
F7.015789433529503
F5.939999961853028
F6.549999952316284
tp942
a(F5.199999809265137
tp943
aa(lp944
(L2001L
F7.0
F6.0
F6.266666730244954
tp945
a(F5.300000190734863
tp946
aa(lp947
(L2003L
F6.699999968210856
F4.5
F4.900000095367432
tp948
a(F4.900000095367432
tp949
aa(lp950
(L2014L
F7.4999998092651365
F7.199999809265137
F7.199999809265137
tp951
a(F7.199999809265137
tp952
aa(lp953
(L2009L
F7.199999809265137
F7.199999809265137
F6.549999952316284
tp954
a(F7.199999809265137
tp955
aa(lp956
(L2009L
F7.25
F6.300000190734863
F7.300000031789144
tp957
a(F6.300000190734863
tp958
aa(lp959
(L2012L
F7.900000095367432
F7.900000095367432
F7.900000095367432
tp960
a(F7.900000095367432
tp961
aa(lp962
(L2007L
F7.099999904632568
F7.099999904632568
F7.099999904632568
tp963
a(F7.099999904632568
tp964
aa(lp965
(L2001L
F7.176923164954553
F5.699999809265137
F5.971428530556815
tp966
a(F5.699999809265137
tp967
aa(lp968
(L2007L
F6.049999952316284
F2.7666666507720947
F3.049999952316284
tp969
a(F3.5999999046325684
tp970
aa(lp971
(L2013L
F9.5
F8.550000071525574
F9.5
tp972
a(F9.5
tp973
aa(lp974
(L1979L
F6.7352941036224365
F4.016666650772095
F3.424999952316284
tp975
a(F1.7999999523162842
tp976
aa(lp977
(L2005L
F6.168750017881393
F3.487500011920929
F5.241666694482167
tp978
a(F2.5999999046325684
tp979
aa(lp980
(L2010L
F7.25
F6.900000095367432
F6.900000095367432
tp981
a(F6.900000095367432
tp982
aa(lp983
(L2006L
F7.087500035762787
F6.400000095367432
F6.800000031789144
tp984
a(F6.400000095367432
tp985
aa(lp986
(L2008L
F6.313333400090536
F5.700000047683716
F5.300000031789144
tp987
a(F4.5
tp988
aa(lp989
(L1981L
F8.449999809265137
F7.390909108248624
F6.72857141494751
tp990
a(F8.199999809265137
tp991
aa(lp992
(L2011L
F7.116666714350383
F7.1333333651224775
F7.0
tp993
a(F6.900000095367432
tp994
aa(lp995
(L2001L
F7.250000079472859
F6.137500047683716
F6.650000095367432
tp996
a(F6.300000190734863
tp997
aa(lp998
(L2004L
F6.899999976158142
F4.599999904632568
F6.299999833106995
tp999
a(F4.599999904632568
tp1000
aa(lp1001
(L1991L
F6.433333396911621
F4.699999809265137
F6.223076930412879
tp1002
a(F4.699999809265137
tp1003
aa(lp1004
(L2012L
F6.900000095367432
F6.385714326586042
F6.466666645473904
tp1005
a(F6.400000095367432
tp1006
aa(lp1007
(L2004L
F7.300000190734863
F7.300000190734863
F6.961538461538462
tp1008
a(F7.300000190734863
tp1009
aa(lp1010
(L2001L
F7.549999952316284
F5.300000071525574
F6.733333309491475
tp1011
a(F6.900000095367432
tp1012
aa(lp1013
(L2005L
F8.800000190734863
F8.800000190734863
F8.800000190734863
tp1014
a(F8.800000190734863
tp1015
aa(lp1016
(L2004L
F7.200000047683716
F6.900000095367432
F6.900000095367432
tp1017
a(F6.900000095367432
tp1018
aa(lp1019
(L2010L
F7.299999872843425
F6.8999998569488525
F6.999999904632569
tp1020
a(F6.699999809265137
tp1021
aa(lp1022
(L2006L
F6.540000057220459
F5.400000095367432
F5.5
tp1023
a(F4.900000095367432
tp1024
aa(lp1025
(L2011L
F6.96666685740153
F6.400000095367432
F7.350000023841858
tp1026
a(F6.5
tp1027
aa(lp1028
(L2000L
F7.166666666666667
F6.599999904632568
F6.52222220102946
tp1029
a(F6.599999904632568
tp1030
aa(lp1031
(L1994L
F7.299999952316284
F6.549999952316284
F6.716666618982951
tp1032
a(F6.599999904632568
tp1033
aa(lp1034
(L2009L
F6.5
F6.5
F6.516666650772095
tp1035
a(F5.5
tp1036
aa(lp1037
(L1994L
F7.400000095367432
F6.300000190734863
F6.750000059604645
tp1038
a(F6.300000190734863
tp1039
aa(lp1040
(L2013L
F8.199999809265137
F8.199999809265137
F8.199999809265137
tp1041
a(F8.199999809265137
tp1042
aa(lp1043
(L2008L
F7.250000079472859
F6.320000028610229
F6.6800000190734865
tp1044
a(F6.300000190734863
tp1045
aa(lp1046
(L2009L
F7.5
F7.25
F7.4666666984558105
tp1047
a(F7.400000095367432
tp1048
aa(lp1049
(L2001L
F6.762499988079071
F5.599999904632568
F6.838888883590698
tp1050
a(F5.599999904632568
tp1051
aa(lp1052
(L2012L
F6.520000076293945
F4.400000095367432
F4.400000095367432
tp1053
a(F4.400000095367432
tp1054
aa(lp1055
(L1986L
F6.166666666666667
F5.3666666348775225
F5.721428564616612
tp1056
a(F4.599999904632568
tp1057
aa(lp1058
(L2011L
F6.450000047683716
F3.5
F5.2166666984558105
tp1059
a(F3.5
tp1060
aa(lp1061
(L1946L
F7.799999713897705
F7.1499998569488525
F7.259999942779541
tp1062
a(F7.199999809265137
tp1063
aa(lp1064
(L2011L
F7.0
F6.0
F6.733333269755046
tp1065
a(F6.0
tp1066
aa(lp1067
(L1994L
F7.849999904632568
F7.799999978807238
F7.449999809265137
tp1068
a(F7.199999809265137
tp1069
aa(lp1070
(L1999L
F7.475000023841858
F5.333333333333333
F7.109090935100209
tp1071
a(F6.0
tp1072
aa(lp1073
(L1992L
F7.099999904632568
F6.153333314259847
F6.233333333333333
tp1074
a(F7.0
tp1075
aa(lp1076
(L1999L
F7.3666666348775225
F6.4631578796788265
F6.936000003814697
tp1077
a(F6.599999904632568
tp1078
aa(lp1079
(L2001L
F6.800000031789144
F5.725000023841858
F6.169230754558857
tp1080
a(F4.400000095367432
tp1081
aa(lp1082
(L1949L
F7.3500000068119595
F7.1000001430511475
F6.800000190734863
tp1083
a(F6.800000190734863
tp1084
aa(lp1085
(L2001L
F6.899999936421712
F6.975000023841858
F6.354545398191973
tp1086
a(F6.400000095367432
tp1087
aa(lp1088
(L2011L
F6.466666618982951
F6.400000095367432
F6.400000095367432
tp1089
a(F6.400000095367432
tp1090
aa(lp1091
(L2007L
F6.659999942779541
F6.933333396911621
F6.199999809265137
tp1092
a(F6.199999809265137
tp1093
aa(lp1094
(L2012L
F7.483333269755046
F6.7399999618530275
F6.843103441698798
tp1095
a(F6.5
tp1096
aa(lp1097
(L1924L
F7.8500001430511475
F7.5
F7.700000047683716
tp1098
a(F7.400000095367432
tp1099
aa(lp1100
(L2004L
F7.100000023841858
F5.8900000095367435
F6.099999904632568
tp1101
a(F5.599999904632568
tp1102
aa(lp1103
(L1970L
F6.433333237965901
F5.733333269755046
F6.199999809265137
tp1104
a(F6.199999809265137
tp1105
aa(lp1106
(L2006L
F7.400000095367432
F7.400000095367432
F7.400000095367432
tp1107
a(F7.400000095367432
tp1108
aa(lp1109
(L2000L
F7.039285591670445
F5.575000047683716
F6.839999866485596
tp1110
a(F6.199999809265137
tp1111
aa(lp1112
(L2014L
F4.2
F3.0500000715255737
F3.633333444595337
tp1113
a(F1.7000000476837158
tp1114
aa(lp1115
(L2005L
F7.699999809265137
F7.699999809265137
F7.699999809265137
tp1116
a(F7.699999809265137
tp1117
aa(lp1118
(L2010L
F7.800000190734863
F7.800000190734863
F7.800000190734863
tp1119
a(F7.800000190734863
tp1120
aa(lp1121
(L2008L
F7.099999904632568
F7.099999904632568
F7.099999904632568
tp1122
a(F7.099999904632568
tp1123
aa(lp1124
(L2000L
F6.695238067990258
F4.333333333333333
F6.426315784454346
tp1125
a(F3.5999999046325684
tp1126
aa(lp1127
(L2001L
F6.666666825612386
F6.233333269755046
F6.5
tp1128
a(F5.400000095367432
tp1129
aa(lp1130
(L2009L
F5.466666738192241
F3.799999952316284
F3.799999952316284
tp1131
a(F3.799999952316284
tp1132
aa(lp1133
(L2011L
F7.225000023841858
F7.0
F7.099999904632568
tp1134
a(F7.0
tp1135
aa(lp1136
(L2007L
F6.875
F6.0
F6.0
tp1137
a(F6.0
tp1138
aa(lp1139
(L2014L
F6.871428557804653
F6.100000023841858
F5.100000023841858
tp1140
a(F4.900000095367432
tp1141
aa(lp1142
(L1976L
F7.900000095367432
F6.774999976158142
F7.066666762034099
tp1143
a(F7.900000095367432
tp1144
aa(lp1145
(L2005L
F8.800000190734863
F8.800000190734863
F8.800000190734863
tp1146
a(F8.800000190734863
tp1147
aa(lp1148
(L2009L
F7.166666587193807
F6.375
F6.5
tp1149
a(F6.0
tp1150
aa(lp1151
(L2004L
F7.296153893837562
F6.100000063578288
F6.950000047683716
tp1152
a(F5.400000095367432
tp1153
aa(lp1154
(L2008L
F6.571428571428571
F4.199999809265137
F5.577777809566921
tp1155
a(F4.199999809265137
tp1156
aa(lp1157
(L2013L
F5.9666666984558105
F5.300000190734863
F5.050000101327896
tp1158
a(F4.800000190734863
tp1159
aa(lp1160
(L2001L
F6.750000095367431
F5.4666666984558105
F5.714705901987412
tp1161
a(F5.900000095367432
tp1162
aa(lp1163
(L2007L
F7.066666603088379
F6.800000190734863
F6.800000190734863
tp1164
a(F6.800000190734863
tp1165
aa(lp1166
(L2008L
F6.600000063578288
F5.225000023841858
F6.4454545107754795
tp1167
a(F3.9000000953674316
tp1168
aa(lp1169
(L2013L
F7.699999809265137
F7.699999809265137
F7.699999809265137
tp1170
a(F7.699999809265137
tp1171
aa(lp1172
(L1976L
F7.450000047683716
F7.300000190734863
F7.400000095367432
tp1173
a(F7.300000190734863
tp1174
aa(lp1175
(L2002L
F6.545454545454546
F5.599999904632568
F7.160000038146973
tp1176
a(F5.599999904632568
tp1177
aa(lp1178
(L1987L
F7.533333354526096
F7.537500023841858
F7.108333309491475
tp1179
a(F7.0
tp1180
aa(lp1181
(L2013L
F7.033333460489909
F6.699999809265137
F6.850000023841858
tp1182
a(F6.699999809265137
tp1183
aa(lp1184
(L1986L
F6.99999984105428
F5.950000047683716
F6.599999904632568
tp1185
a(F6.599999904632568
tp1186
aa(lp1187
(L1977L
F6.5
F6.5
F6.840000057220459
tp1188
a(F6.5
tp1189
aa(lp1190
(L1977L
F7.266666889190674
F6.594736877240632
F6.400000095367432
tp1191
a(F6.400000095367432
tp1192
aa(lp1193
(L1937L
F7.4533332824707035
F7.028571401323591
F7.2833333015441895
tp1194
a(F7.0
tp1195
aa(lp1196
(L2005L
F7.300000190734863
F6.800000190734863
F6.800000190734863
tp1197
a(F6.800000190734863
tp1198
aa(lp1199
(L2005L
F6.774999976158142
F5.920000004768371
F6.844444380866157
tp1200
a(F4.900000095367432
tp1201
aa(lp1202
(L1978L
F7.439999961853028
F6.280000019073486
F6.125000019868215
tp1203
a(F6.5
tp1204
aaa(lp1205
(lp1206
(L2012L
F7.142857142857143
F4.300000190734863
F5.537500003973643
tp1207
a(F4.300000190734863
tp1208
aa(lp1209
(L2011L
F6.950000047683716
F6.800000190734863
F6.800000190734863
tp1210
a(F6.800000190734863
tp1211
aa(lp1212
(L2011L
F6.288888984256321
F5.975000023841858
F6.1166666348775225
tp1213
a(F4.800000190734863
tp1214
aa(lp1215
(L2014L
F8.0
F7.349999904632568
F8.0
tp1216
a(F8.0
tp1217
aa(lp1218
(L2012L
F6.700000047683716
F5.800000190734863
F5.800000190734863
tp1219
a(F5.800000190734863
tp1220
aa(lp1221
(L2009L
F4.300000190734863
F4.300000190734863
F5.349999984105428
tp1222
a(F4.300000190734863
tp1223
aa(lp1224
(L2002L
F7.4666666984558105
F6.880000019073487
F7.333333333333333
tp1225
a(F7.0
tp1226
aa(lp1227
(L1968L
F7.2600000381469725
F6.149999936421712
F7.250000079472859
tp1228
a(F6.599999904632568
tp1229
aa(lp1230
(L1986L
F6.933333237965901
F5.900000095367432
F6.5
tp1231
a(F5.900000095367432
tp1232
aa(lp1233
(L1967L
F7.679999923706054
F7.537500023841858
F6.800000190734863
tp1234
a(F6.800000190734863
tp1235
aa(lp1236
(L1974L
F7.083333333333333
F6.099999972752163
F5.8999998569488525
tp1237
a(F5.099999904632568
tp1238
aa(lp1239
(L2008L
F6.400000095367432
F6.400000095367432
F6.400000095367432
tp1240
a(F6.400000095367432
tp1241
aa(lp1242
(L1993L
F7.199999809265137
F7.099999904632568
F7.199999809265137
tp1243
a(F7.199999809265137
tp1244
aa(lp1245
(L2012L
F6.666666825612386
F4.900000095367432
F4.900000095367432
tp1246
a(F4.900000095367432
tp1247
aa(lp1248
(L2014L
F7.060000038146972
F5.660000133514404
F6.400000095367432
tp1249
a(F6.400000095367432
tp1250
aa(lp1251
(L1982L
F6.171428578240531
F4.7499998807907104
F5.600000047683716
tp1252
a(F3.299999952316284
tp1253
aa(lp1254
(L2010L
F6.599999904632568
F6.25
F6.599999904632568
tp1255
a(F6.599999904632568
tp1256
aa(lp1257
(L1979L
F8.024999856948853
F5.823076945084792
F7.0
tp1258
a(F7.0
tp1259
aa(lp1260
(L1980L
F6.638235218384686
F5.5
F6.580000019073486
tp1261
a(F5.5
tp1262
aa(lp1263
(L1964L
F7.800000190734863
F7.3599999904632565
F8.050000190734863
tp1264
a(F7.800000190734863
tp1265
aa(lp1266
(L2000L
F7.3749998807907104
F6.549999952316284
F6.42941177592558
tp1267
a(F6.400000095367432
tp1268
aa(lp1269
(L2010L
F7.6000001430511475
F6.933333396911621
F7.400000095367432
tp1270
a(F7.400000095367432
tp1271
aa(lp1272
(L2008L
F6.8666666348775225
F5.99999984105428
F6.599999904632568
tp1273
a(F6.599999904632568
tp1274
aa(lp1275
(L2012L
F7.299999952316284
F7.099999904632568
F7.099999904632568
tp1276
a(F7.099999904632568
tp1277
aa(lp1278
(L2008L
F7.699999809265137
F7.699999809265137
F7.699999809265137
tp1279
a(F7.699999809265137
tp1280
aa(lp1281
(L1986L
F6.950000047683716
F6.099999904632568
F6.233333349227905
tp1282
a(F6.099999904632568
tp1283
aa(lp1284
(L2011L
F6.71428564616612
F5.800000190734863
F6.066666762034099
tp1285
a(F5.800000190734863
tp1286
aa(lp1287
(L2011L
F8.0
F8.0
F8.0
tp1288
a(F8.0
tp1289
aa(lp1290
(L2013L
F6.424999952316284
F4.5
F6.349999904632568
tp1291
a(F4.0
tp1292
aa(lp1293
(L2001L
F6.659999942779541
F6.0
F6.049999892711639
tp1294
a(F6.0
tp1295
aa(lp1296
(L1988L
F7.400000095367432
F7.0
F7.0
tp1297
a(F7.0
tp1298
aa(lp1299
(L2003L
F4.5
F4.5
F4.5
tp1300
a(F4.5
tp1301
aa(lp1302
(L2004L
F6.238095294861567
F4.5
F5.766666650772095
tp1303
a(F4.5
tp1304
aa(lp1305
(L1988L
F6.699999928474426
F5.99999984105428
F6.699999809265137
tp1306
a(F6.699999809265137
tp1307
aa(lp1308
(L2008L
F5.200000047683716
F4.199999968210856
F3.0999999046325684
tp1309
a(F3.0999999046325684
tp1310
aa(lp1311
(L1992L
F6.700000047683716
F5.199999968210856
F5.6099999904632565
tp1312
a(F4.599999904632568
tp1313
aa(lp1314
(L2005L
F6.833333333333333
F5.949999809265137
F6.233333269755046
tp1315
a(F6.199999809265137
tp1316
aa(lp1317
(L2014L
F7.1333333651224775
F6.599999904632568
F6.637499988079071
tp1318
a(F6.599999904632568
tp1319
aa(lp1320
(L1934L
F7.566666603088379
F6.699999809265137
F7.146666685740153
tp1321
a(F6.699999809265137
tp1322
aa(lp1323
(L1998L
F6.541666587193807
F4.699999928474426
F5.699999809265137
tp1324
a(F5.699999809265137
tp1325
aa(lp1326
(L2005L
F6.199999809265137
F6.199999809265137
F6.199999809265137
tp1327
a(F6.199999809265137
tp1328
aa(lp1329
(L2011L
F6.20399995803833
F5.479999923706055
F6.433333396911621
tp1330
a(F4.0
tp1331
aa(lp1332
(L2011L
F7.400000095367432
F7.400000095367432
F7.400000095367432
tp1333
a(F7.400000095367432
tp1334
aa(lp1335
(L1958L
F7.450000047683716
F5.6000001430511475
F6.400000095367432
tp1336
a(F6.400000095367432
tp1337
aa(lp1338
(L1971L
F5.699999904632568
F5.400000095367432
F4.730769267449012
tp1339
a(F5.400000095367432
tp1340
aa(lp1341
(L2010L
F6.1052631704430835
F5.2499998807907104
F5.566666603088379
tp1342
a(F5.199999809265137
tp1343
aa(lp1344
(L2012L
F7.349999904632568
F7.0
F7.099999904632568
tp1345
a(F7.0
tp1346
aa(lp1347
(L1949L
F7.414285659790039
F7.066666603088379
F7.002857153756278
tp1348
a(F7.0
tp1349
aa(lp1350
(L2009L
F6.299999952316284
F5.5
F5.980000019073486
tp1351
a(F5.5
tp1352
aa(lp1353
(L2012L
F6.700000047683716
F4.0
F4.0
tp1354
a(F4.0
tp1355
aa(lp1356
(L2010L
F7.400000095367432
F7.8500001430511475
F7.199999968210856
tp1357
a(F7.400000095367432
tp1358
aa(lp1359
(L1949L
F7.6333333651224775
F7.240000009536743
F7.028947391008076
tp1360
a(F7.300000190734863
tp1361
aa(lp1362
(L2001L
F6.099999904632568
F6.099999904632568
F6.099999904632568
tp1363
a(F6.099999904632568
tp1364
aa(lp1365
(L2011L
F6.700000047683716
F6.0
F6.4882352772881005
tp1366
a(F6.0
tp1367
aa(lp1368
(L2012L
F7.349999904632568
F6.5
F7.28333322207133
tp1369
a(F6.5
tp1370
aa(lp1371
(L1995L
F6.657142843518939
F6.781818173148415
F6.6777777671813965
tp1372
a(F4.5
tp1373
aa(lp1374
(L1991L
F7.750000238418579
F7.0600001335144045
F7.650000095367432
tp1375
a(F7.400000095367432
tp1376
aa(lp1377
(L2006L
F6.899999968210856
F6.450000047683716
F6.426666641235352
tp1378
a(F6.099999904632568
tp1379
aa(lp1380
(L1987L
F7.399999936421712
F6.200000047683716
F6.900000095367432
tp1381
a(F6.900000095367432
tp1382
aa(lp1383
(L2000L
F7.324999928474426
F6.740909077904441
F6.610000014305115
tp1384
a(F7.099999904632568
tp1385
aa(lp1386
(L2005L
F7.800000031789144
F7.099999904632568
F7.099999904632568
tp1387
a(F7.099999904632568
tp1388
aa(lp1389
(L2005L
F6.5
F4.3999998569488525
F5.199999809265137
tp1390
a(F5.199999809265137
tp1391
aa(lp1392
(L2009L
F7.150000095367432
F7.0
F7.0
tp1393
a(F6.5
tp1394
aa(lp1395
(L2007L
F7.6499998569488525
F6.8500001430511475
F6.900000095367432
tp1396
a(F6.900000095367432
tp1397
aa(lp1398
(L1980L
F6.575000047683716
F6.1499998569488525
F6.1499998569488525
tp1399
a(F5.199999809265137
tp1400
aa(lp1401
(L1986L
F6.577777809566921
F3.0
F4.166666666666667
tp1402
a(F3.0
tp1403
aa(lp1404
(L2001L
F6.475000023841858
F4.900000095367432
F4.900000095367432
tp1405
a(F4.900000095367432
tp1406
aa(lp1407
(L2005L
F6.825000047683716
F4.800000190734863
F4.800000190734863
tp1408
a(F4.800000190734863
tp1409
aa(lp1410
(L2013L
F6.766666730244954
F4.0
F4.666666666666667
tp1411
a(F4.0
tp1412
aa(lp1413
(L2009L
F6.833333373069763
F5.800000190734863
F6.928571479661124
tp1414
a(F5.800000190734863
tp1415
aa(lp1416
(L2006L
F7.900000095367432
F6.800000190734863
F6.613636341961947
tp1417
a(F6.800000190734863
tp1418
aa(lp1419
(L2008L
F6.8999998569488525
F6.385714326586042
F7.285714285714286
tp1420
a(F6.599999904632568
tp1421
aa(lp1422
(L2008L
F6.900000095367432
F5.900000095367432
F5.900000095367432
tp1423
a(F5.900000095367432
tp1424
aa(lp1425
(L2001L
F7.099999904632568
F6.611111111111111
F6.549999952316284
tp1426
a(F6.199999809265137
tp1427
aa(lp1428
(L1912L
F5.800000190734863
F5.800000190734863
F5.800000190734863
tp1429
a(F5.800000190734863
tp1430
aa(lp1431
(L2010L
F7.700000047683716
F5.975000023841858
F7.5
tp1432
a(F7.5
tp1433
aa(lp1434
(L1933L
F7.700000286102295
F6.824999988079071
F6.8285715239388605
tp1435
a(F7.300000190734863
tp1436
aa(lp1437
(L2001L
F7.900000095367432
F7.900000095367432
F7.900000095367432
tp1438
a(F7.900000095367432
tp1439
aa(lp1440
(L1974L
F7.75
F7.152631596515053
F7.300000190734863
tp1441
a(F7.300000190734863
tp1442
aa(lp1443
(L2001L
F7.099999904632568
F6.0
F7.099999904632568
tp1444
a(F7.099999904632568
tp1445
aa(lp1446
(L2012L
F7.099999904632568
F7.099999904632568
F7.099999904632568
tp1447
a(F7.099999904632568
tp1448
aa(lp1449
(L2011L
F6.049999952316284
F6.0
F6.524999976158142
tp1450
a(F5.599999904632568
tp1451
aa(lp1452
(L2007L
F5.300000031789144
F3.799999952316284
F3.799999952316284
tp1453
a(F3.0999999046325684
tp1454
aa(lp1455
(L2009L
F7.0
F6.300000190734863
F6.850000023841858
tp1456
a(F6.300000190734863
tp1457
aa(lp1458
(L2011L
F7.000000022706532
F4.599999904632568
F4.599999904632568
tp1459
a(F4.599999904632568
tp1460
aa(lp1461
(L2004L
F7.3666666348775225
F6.744444476233588
F6.416666746139526
tp1462
a(F6.400000095367432
tp1463
aa(lp1464
(L2009L
F7.6333333651224775
F7.6
F7.3199999809265135
tp1465
a(F7.300000190734863
tp1466
aa(lp1467
(L2011L
F6.699999809265137
F6.699999809265137
F6.699999809265137
tp1468
a(F6.699999809265137
tp1469
aa(lp1470
(L2014L
F8.199999809265137
F8.199999809265137
F8.199999809265137
tp1471
a(F8.199999809265137
tp1472
aa(lp1473
(L1938L
F7.766666571299235
F6.950000047683716
F7.179999971389771
tp1474
a(F6.900000095367432
tp1475
aa(lp1476
(L1976L
F8.100000381469727
F6.314285755157471
F6.743749976158142
tp1477
a(F8.100000381469727
tp1478
aa(lp1479
(L1985L
F6.199999968210856
F5.3666666348775225
F5.475000011920929
tp1480
a(F5.0
tp1481
aa(lp1482
(L2009L
F5.8999998569488525
F5.199999809265137
F5.199999809265137
tp1483
a(F5.199999809265137
tp1484
aa(lp1485
(L2009L
F6.8749998807907104
F6.199999809265137
F6.199999809265137
tp1486
a(F6.199999809265137
tp1487
aa(lp1488
(L2002L
F6.849999904632568
F5.637499988079071
F6.733333349227905
tp1489
a(F6.699999809265137
tp1490
aa(lp1491
(L1968L
F7.233333428700765
F6.599999904632568
F7.0
tp1492
a(F6.599999904632568
tp1493
aa(lp1494
(L1981L
F7.360000038146973
F6.900000095367432
F7.075000047683716
tp1495
a(F6.900000095367432
tp1496
aa(lp1497
(L2013L
F5.599999904632568
F4.0
F4.0
tp1498
a(F4.0
tp1499
aa(lp1500
(L1928L
F7.5
F7.608333428700765
F7.428571496691022
tp1501
a(F7.5
tp1502
aa(lp1503
(L2000L
F6.699999809265137
F6.8666666348775225
F7.199999809265137
tp1504
a(F6.699999809265137
tp1505
aaa(lp1506
(lp1507
(L1988L
F7.149999976158142
F7.185714176722935
F7.199999809265137
tp1508
a(F6.0
tp1509
aa(lp1510
(L2011L
F6.899999948648306
F4.900000095367432
F6.6333333651224775
tp1511
a(F4.900000095367432
tp1512
aa(lp1513
(L1993L
F6.900000095367432
F6.566666603088379
F6.950000047683716
tp1514
a(F6.400000095367432
tp1515
aa(lp1516
(L1966L
F6.99999984105428
F5.799999952316284
F5.8375000059604645
tp1517
a(F6.0
tp1518
aa(lp1519
(L2011L
F7.385714394705636
F6.774999976158142
F6.639999961853027
tp1520
a(F6.699999809265137
tp1521
aa(lp1522
(L2007L
F7.199999809265137
F7.199999809265137
F7.199999809265137
tp1523
a(F7.199999809265137
tp1524
aa(lp1525
(L1968L
F6.799999952316284
F6.400000095367432
F6.400000095367432
tp1526
a(F6.400000095367432
tp1527
aa(lp1528
(L2007L
F6.0
F6.066666762034099
F6.066666762034099
tp1529
a(F6.0
tp1530
aa(lp1531
(L2005L
F7.900000095367432
F7.650000095367432
F7.566666762034099
tp1532
a(F7.900000095367432
tp1533
aa(lp1534
(L1923L
F7.774999976158142
F7.080000114440918
F7.1000001430511475
tp1535
a(F7.300000190734863
tp1536
aa(lp1537
(L2012L
F7.199999809265137
F6.199999928474426
F7.199999809265137
tp1538
a(F7.199999809265137
tp1539
aa(lp1540
(L1975L
F6.700000047683716
F6.594736877240632
F6.2166666984558105
tp1541
a(F6.599999904632568
tp1542
aa(lp1543
(L2006L
F7.199999968210856
F6.724999904632568
F7.111111058129205
tp1544
a(F7.199999809265137
tp1545
aa(lp1546
(L1998L
F8.0
F6.580000019073486
F8.0
tp1547
a(F8.0
tp1548
aa(lp1549
(L2009L
F6.671428544180734
F6.233333269755046
F6.416666666666667
tp1550
a(F4.599999904632568
tp1551
aa(lp1552
(L2001L
F7.00000015894572
F6.800000190734863
F6.800000190734863
tp1553
a(F6.800000190734863
tp1554
aa(lp1555
(L2002L
F7.400000095367432
F6.511111206478542
F6.850000023841858
tp1556
a(F6.900000095367432
tp1557
aa(lp1558
(L2013L
F6.187500059604645
F4.050000071525574
F6.122580605168497
tp1559
a(F5.300000190734863
tp1560
aa(lp1561
(L1993L
F8.899999618530273
F7.41428576196943
F8.899999618530273
tp1562
a(F8.899999618530273
tp1563
aa(lp1564
(L2011L
F6.75
F6.5
F5.699999809265137
tp1565
a(F5.699999809265137
tp1566
aa(lp1567
(L2001L
F7.066666603088379
F6.6333333651224775
F6.666666825612386
tp1568
a(F6.400000095367432
tp1569
aa(lp1570
(L2010L
F8.800000190734863
F8.550000071525574
F8.880000114440918
tp1571
a(F8.800000190734863
tp1572
aa(lp1573
(L1986L
F7.300000190734863
F7.157142911638532
F7.012500047683716
tp1574
a(F7.300000190734863
tp1575
aa(lp1576
(L2011L
F5.100000023841858
F3.700000047683716
F3.649999976158142
tp1577
a(F3.700000047683716
tp1578
aa(lp1579
(L1998L
F7.1499998569488525
F7.108000030517578
F7.112500031789144
tp1580
a(F6.599999904632568
tp1581
aa(lp1582
(L2000L
F6.8500001430511475
F5.799999952316284
F5.900000095367432
tp1583
a(F5.900000095367432
tp1584
aa(lp1585
(L1981L
F6.810526320808812
F5.5
F6.599999904632568
tp1586
a(F5.699999809265137
tp1587
aa(lp1588
(L2013L
F6.039999961853027
F5.433333396911621
F5.150000095367432
tp1589
a(F3.5
tp1590
aa(lp1591
(L2009L
F7.699999809265137
F7.699999809265137
F7.699999809265137
tp1592
a(F7.699999809265137
tp1593
aa(lp1594
(L1993L
F7.100000063578288
F6.300000031789144
F6.609090935100209
tp1595
a(F6.099999904632568
tp1596
aa(lp1597
(L2005L
F5.599999904632568
F4.699999809265137
F4.699999809265137
tp1598
a(F4.699999809265137
tp1599
aa(lp1600
(L2005L
F6.933333237965901
F5.740000057220459
F6.25
tp1601
a(F6.099999904632568
tp1602
aa(lp1603
(L2006L
F8.0
F8.0
F7.933333396911621
tp1604
a(F8.0
tp1605
aa(lp1606
(L2012L
F6.300000190734863
F6.300000190734863
F6.300000190734863
tp1607
a(F6.300000190734863
tp1608
aa(lp1609
(L1999L
F6.9399998664855955
F7.335714340209961
F7.3
tp1610
a(F6.699999809265137
tp1611
aa(lp1612
(L2014L
F6.13750001291434
F3.5999999046325684
F5.066666762034099
tp1613
a(F3.5999999046325684
tp1614
aa(lp1615
(L2007L
F8.150000095367432
F7.050000190734863
F7.925000071525574
tp1616
a(F7.800000190734863
tp1617
aa(lp1618
(L2004L
F6.199999809265137
F6.9666666984558105
F6.199999809265137
tp1619
a(F6.199999809265137
tp1620
aa(lp1621
(L2007L
F7.900000095367432
F7.900000095367432
F6.8799999237060545
tp1622
a(F7.900000095367432
tp1623
aa(lp1624
(L1990L
F7.150000095367432
F6.5375000437100725
F6.9647058318643005
tp1625
a(F7.0
tp1626
aa(lp1627
(L1999L
F6.577777809566921
F6.0
F6.266666730244954
tp1628
a(F6.0
tp1629
aa(lp1630
(L2007L
F6.774999976158142
F5.800000190734863
F5.800000190734863
tp1631
a(F5.800000190734863
tp1632
aa(lp1633
(L2007L
F7.0
F6.900000095367432
F7.049999952316284
tp1634
a(F6.900000095367432
tp1635
aa(lp1636
(L1930L
F7.487499952316284
F6.900000095367432
F7.271052674243324
tp1637
a(F7.0
tp1638
aa(lp1639
(L2002L
F6.6875
F5.3999998569488525
F6.161538454202505
tp1640
a(F5.199999809265137
tp1641
aa(lp1642
(L2000L
F7.5
F7.400000095367432
F7.700000047683716
tp1643
a(F7.5
tp1644
aa(lp1645
(L1986L
F6.388888835906982
F6.25
F5.274999916553497
tp1646
a(F5.199999809265137
tp1647
aa(lp1648
(L2010L
F7.1333333651224775
F6.66666677263048
F6.347368491323371
tp1649
a(F5.900000095367432
tp1650
aa(lp1651
(L2004L
F6.276923106266902
F4.099999904632568
F4.899999936421712
tp1652
a(F4.099999904632568
tp1653
aa(lp1654
(L2012L
F5.950000047683716
F4.5
F4.5
tp1655
a(F4.5
tp1656
aa(lp1657
(L2006L
F7.200000047683716
F6.8500001430511475
F6.650000015894572
tp1658
a(F6.800000190734863
tp1659
aa(lp1660
(L2012L
F7.0
F6.866666793823242
F6.7375001311302185
tp1661
a(F7.0
tp1662
aa(lp1663
(L1997L
F7.799999952316284
F6.564705876743092
F6.587499976158142
tp1664
a(F7.099999904632568
tp1665
aa(lp1666
(L1946L
F7.5699999809265135
F7.069230739886944
F6.753333409627278
tp1667
a(F6.599999904632568
tp1668
aa(lp1669
(L1983L
F7.049999952316284
F6.3749998807907104
F6.699999809265137
tp1670
a(F6.699999809265137
tp1671
aa(lp1672
(L2010L
F6.5
F5.6499998569488525
F6.3399999141693115
tp1673
a(F5.599999904632568
tp1674
aa(lp1675
(L1938L
F7.675000071525574
F7.066666603088379
F7.179999971389771
tp1676
a(F6.900000095367432
tp1677
aa(lp1678
(L2005L
F6.899999936421712
F5.1499998569488525
F5.699999809265137
tp1679
a(F5.699999809265137
tp1680
aa(lp1681
(L2009L
F7.599999904632568
F6.75
F7.0
tp1682
a(F7.0
tp1683
aa(lp1684
(L2010L
F5.900000095367432
F5.549999952316284
F6.0
tp1685
a(F5.900000095367432
tp1686
aa(lp1687
(L2014L
F5.800000190734863
F7.659999942779541
F7.659999942779541
tp1688
a(F5.800000190734863
tp1689
aa(lp1690
(L2003L
F6.433333396911621
F4.099999904632568
F4.099999904632568
tp1691
a(F4.099999904632568
tp1692
aa(lp1693
(L1992L
F7.2
F5.680000114440918
F6.549999992052714
tp1694
a(F5.300000190734863
tp1695
aa(lp1696
(L2000L
F6.900000095367432
F5.400000095367432
F6.299999952316284
tp1697
a(F5.400000095367432
tp1698
aa(lp1699
(L2006L
F7.349999904632568
F6.5
F7.550000190734863
tp1700
a(F6.5
tp1701
aa(lp1702
(L2014L
F6.75
F6.199999809265137
F6.199999809265137
tp1703
a(F6.199999809265137
tp1704
aa(lp1705
(L1966L
F7.346666653951009
F5.585714340209961
F6.866666793823242
tp1706
a(F6.300000190734863
tp1707
aa(lp1708
(L2010L
F6.6866666634877525
F6.4999998807907104
F6.320000171661377
tp1709
a(F6.400000095367432
tp1710
aa(lp1711
(L1996L
F6.81538464472844
F5.4666666984558105
F6.254545428536155
tp1712
a(F4.300000190734863
tp1713
aa(lp1714
(L1940L
F7.226666641235352
F5.500000034059797
F6.699999968210856
tp1715
a(F7.199999809265137
tp1716
aa(lp1717
(L1997L
F7.200000127156575
F5.4
F6.843103441698798
tp1718
a(F5.800000190734863
tp1719
aa(lp1720
(L2003L
F6.650000095367432
F5.400000095367432
F5.525000095367432
tp1721
a(F5.400000095367432
tp1722
aa(lp1723
(L2007L
F7.300000190734863
F7.300000190734863
F7.300000190734863
tp1724
a(F7.300000190734863
tp1725
aa(lp1726
(L1987L
F6.8
F6.630000019073487
F7.900000095367432
tp1727
a(F7.900000095367432
tp1728
aa(lp1729
(L2004L
F5.800000190734863
F6.1000001430511475
F5.959090904756025
tp1730
a(F5.800000190734863
tp1731
aa(lp1732
(L1966L
F7.1499998569488525
F7.147368481284694
F7.5666667222976685
tp1733
a(F6.599999904632568
tp1734
aa(lp1735
(L2008L
F8.699999809265137
F8.699999809265137
F8.699999809265137
tp1736
a(F8.699999809265137
tp1737
aa(lp1738
(L2003L
F6.699999968210856
F4.5
F4.900000095367432
tp1739
a(F4.900000095367432
tp1740
aa(lp1741
(L2013L
F6.6166666348775225
F5.199999809265137
F6.328571455819266
tp1742
a(F5.199999809265137
tp1743
aa(lp1744
(L2009L
F7.1000001430511475
F6.300000190734863
F6.300000190734863
tp1745
a(F6.300000190734863
tp1746
aa(lp1747
(L1998L
F7.699999809265137
F6.899999904632568
F6.899999976158142
tp1748
a(F7.699999809265137
tp1749
aa(lp1750
(L2002L
F6.5
F6.5
F6.5
tp1751
a(F6.5
tp1752
aa(lp1753
(L1999L
F6.799999952316284
F6.483333269755046
F6.0
tp1754
a(F6.0
tp1755
aa(lp1756
(L1944L
F7.5699999809265135
F7.599999904632568
F7.5
tp1757
a(F7.5
tp1758
aa(lp1759
(L2005L
F7.104347809501316
F5.400000095367432
F6.583333412806193
tp1760
a(F5.300000190734863
tp1761
aa(lp1762
(L2009L
F7.150000015894572
F6.400000095367432
F6.400000095367432
tp1763
a(F5.599999904632568
tp1764
aa(lp1765
(L1963L
F6.676190433048067
F4.699999988079071
F2.649999976158142
tp1766
a(F2.799999952316284
tp1767
aa(lp1768
(L2005L
F6.950000047683716
F6.3500001430511475
F6.400000095367432
tp1769
a(F6.400000095367432
tp1770
aa(lp1771
(L2001L
F7.0
F7.040000057220459
F6.814285755157471
tp1772
a(F6.199999809265137
tp1773
aa(lp1774
(L1997L
F7.5
F6.299999952316284
F6.900000095367432
tp1775
a(F6.900000095367432
tp1776
aa(lp1777
(L2012L
F6.728571483067104
F4.800000190734863
F6.300000190734863
tp1778
a(F4.800000190734863
tp1779
aa(lp1780
(L2014L
F6.733333269755046
F5.566666603088379
F6.0
tp1781
a(F4.699999809265137
tp1782
aa(lp1783
(L2011L
F4.366666754086812
F3.9000000953674316
F3.9000000953674316
tp1784
a(F3.9000000953674316
tp1785
aa(lp1786
(L2013L
F6.199999968210856
F6.099999904632568
F6.099999904632568
tp1787
a(F6.099999904632568
tp1788
aa(lp1789
(L2010L
F6.422222296396892
F4.400000095367432
F5.666666825612386
tp1790
a(F4.400000095367432
tp1791
aa(lp1792
(L2001L
F7.450000047683716
F6.519999980926514
F7.099999904632568
tp1793
a(F7.099999904632568
tp1794
aa(lp1795
(L2013L
F6.8500001430511475
F5.800000190734863
F5.800000190734863
tp1796
a(F5.800000190734863
tp1797
aa(lp1798
(L1982L
F7.349999904632568
F6.049999952316284
F7.199999809265137
tp1799
a(F7.199999809265137
tp1800
aa(lp1801
(L2008L
F7.199999809265137
F7.199999809265137
F7.199999809265137
tp1802
a(F7.199999809265137
tp1803
aa(lp1804
(L2013L
F6.684999966621399
F4.199999809265137
F5.724999904632568
tp1805
a(F4.199999809265137
tp1806
aaa.